
SpaceInvaders.elf:     file format elf32-littlearm

Sections:
Idx Name          Size      VMA       LMA       File off  Algn
  0 .isr_vector   00000188  08000000  08000000  00010000  2**0
                  CONTENTS, ALLOC, LOAD, READONLY, DATA
  1 .text         00004bdc  08000190  08000190  00010190  2**4
                  CONTENTS, ALLOC, LOAD, READONLY, CODE
  2 .rodata       00000858  08004d6c  08004d6c  00014d6c  2**2
                  CONTENTS, ALLOC, LOAD, READONLY, DATA
  3 .ARM.extab    00000000  080055c4  080055c4  000200c0  2**0
                  CONTENTS
  4 .ARM          00000000  080055c4  080055c4  000200c0  2**0
                  CONTENTS
  5 .preinit_array 00000000  080055c4  080055c4  000200c0  2**0
                  CONTENTS, ALLOC, LOAD, DATA
  6 .init_array   00000004  080055c4  080055c4  000155c4  2**2
                  CONTENTS, ALLOC, LOAD, DATA
  7 .fini_array   00000004  080055c8  080055c8  000155c8  2**2
                  CONTENTS, ALLOC, LOAD, DATA
  8 .data         000000c0  20000000  080055cc  00020000  2**2
                  CONTENTS, ALLOC, LOAD, DATA
  9 .bss          00000568  200000c0  0800568c  000200c0  2**2
                  ALLOC
 10 ._user_heap_stack 00000600  20000628  0800568c  00020628  2**0
                  ALLOC
 11 .ARM.attributes 00000030  00000000  00000000  000200c0  2**0
                  CONTENTS, READONLY
 12 .debug_info   0000e3ef  00000000  00000000  000200f0  2**0
                  CONTENTS, READONLY, DEBUGGING, OCTETS
 13 .debug_abbrev 000027bc  00000000  00000000  0002e4df  2**0
                  CONTENTS, READONLY, DEBUGGING, OCTETS
 14 .debug_aranges 00000900  00000000  00000000  00030ca0  2**3
                  CONTENTS, READONLY, DEBUGGING, OCTETS
 15 .debug_ranges 000007f8  00000000  00000000  000315a0  2**3
                  CONTENTS, READONLY, DEBUGGING, OCTETS
 16 .debug_macro  000050eb  00000000  00000000  00031d98  2**0
                  CONTENTS, READONLY, DEBUGGING, OCTETS
 17 .debug_line   0000b616  00000000  00000000  00036e83  2**0
                  CONTENTS, READONLY, DEBUGGING, OCTETS
 18 .debug_str    0005b44e  00000000  00000000  00042499  2**0
                  CONTENTS, READONLY, DEBUGGING, OCTETS
 19 .comment      00000053  00000000  00000000  0009d8e7  2**0
                  CONTENTS, READONLY
 20 .debug_frame  00002ee0  00000000  00000000  0009d93c  2**2
                  CONTENTS, READONLY, DEBUGGING, OCTETS

Disassembly of section .text:

08000190 <__do_global_dtors_aux>:
 8000190:	b510      	push	{r4, lr}
 8000192:	4c05      	ldr	r4, [pc, #20]	; (80001a8 <__do_global_dtors_aux+0x18>)
 8000194:	7823      	ldrb	r3, [r4, #0]
 8000196:	b933      	cbnz	r3, 80001a6 <__do_global_dtors_aux+0x16>
 8000198:	4b04      	ldr	r3, [pc, #16]	; (80001ac <__do_global_dtors_aux+0x1c>)
 800019a:	b113      	cbz	r3, 80001a2 <__do_global_dtors_aux+0x12>
 800019c:	4804      	ldr	r0, [pc, #16]	; (80001b0 <__do_global_dtors_aux+0x20>)
 800019e:	f3af 8000 	nop.w
 80001a2:	2301      	movs	r3, #1
 80001a4:	7023      	strb	r3, [r4, #0]
 80001a6:	bd10      	pop	{r4, pc}
 80001a8:	200000c0 	.word	0x200000c0
 80001ac:	00000000 	.word	0x00000000
 80001b0:	08004d54 	.word	0x08004d54

080001b4 <frame_dummy>:
 80001b4:	b508      	push	{r3, lr}
 80001b6:	4b03      	ldr	r3, [pc, #12]	; (80001c4 <frame_dummy+0x10>)
 80001b8:	b11b      	cbz	r3, 80001c2 <frame_dummy+0xe>
 80001ba:	4903      	ldr	r1, [pc, #12]	; (80001c8 <frame_dummy+0x14>)
 80001bc:	4803      	ldr	r0, [pc, #12]	; (80001cc <frame_dummy+0x18>)
 80001be:	f3af 8000 	nop.w
 80001c2:	bd08      	pop	{r3, pc}
 80001c4:	00000000 	.word	0x00000000
 80001c8:	200000c4 	.word	0x200000c4
 80001cc:	08004d54 	.word	0x08004d54

080001d0 <memchr>:
 80001d0:	f001 01ff 	and.w	r1, r1, #255	; 0xff
 80001d4:	2a10      	cmp	r2, #16
 80001d6:	db2b      	blt.n	8000230 <memchr+0x60>
 80001d8:	f010 0f07 	tst.w	r0, #7
 80001dc:	d008      	beq.n	80001f0 <memchr+0x20>
 80001de:	f810 3b01 	ldrb.w	r3, [r0], #1
 80001e2:	3a01      	subs	r2, #1
 80001e4:	428b      	cmp	r3, r1
 80001e6:	d02d      	beq.n	8000244 <memchr+0x74>
 80001e8:	f010 0f07 	tst.w	r0, #7
 80001ec:	b342      	cbz	r2, 8000240 <memchr+0x70>
 80001ee:	d1f6      	bne.n	80001de <memchr+0xe>
 80001f0:	b4f0      	push	{r4, r5, r6, r7}
 80001f2:	ea41 2101 	orr.w	r1, r1, r1, lsl #8
 80001f6:	ea41 4101 	orr.w	r1, r1, r1, lsl #16
 80001fa:	f022 0407 	bic.w	r4, r2, #7
 80001fe:	f07f 0700 	mvns.w	r7, #0
 8000202:	2300      	movs	r3, #0
 8000204:	e8f0 5602 	ldrd	r5, r6, [r0], #8
 8000208:	3c08      	subs	r4, #8
 800020a:	ea85 0501 	eor.w	r5, r5, r1
 800020e:	ea86 0601 	eor.w	r6, r6, r1
 8000212:	fa85 f547 	uadd8	r5, r5, r7
 8000216:	faa3 f587 	sel	r5, r3, r7
 800021a:	fa86 f647 	uadd8	r6, r6, r7
 800021e:	faa5 f687 	sel	r6, r5, r7
 8000222:	b98e      	cbnz	r6, 8000248 <memchr+0x78>
 8000224:	d1ee      	bne.n	8000204 <memchr+0x34>
 8000226:	bcf0      	pop	{r4, r5, r6, r7}
 8000228:	f001 01ff 	and.w	r1, r1, #255	; 0xff
 800022c:	f002 0207 	and.w	r2, r2, #7
 8000230:	b132      	cbz	r2, 8000240 <memchr+0x70>
 8000232:	f810 3b01 	ldrb.w	r3, [r0], #1
 8000236:	3a01      	subs	r2, #1
 8000238:	ea83 0301 	eor.w	r3, r3, r1
 800023c:	b113      	cbz	r3, 8000244 <memchr+0x74>
 800023e:	d1f8      	bne.n	8000232 <memchr+0x62>
 8000240:	2000      	movs	r0, #0
 8000242:	4770      	bx	lr
 8000244:	3801      	subs	r0, #1
 8000246:	4770      	bx	lr
 8000248:	2d00      	cmp	r5, #0
 800024a:	bf06      	itte	eq
 800024c:	4635      	moveq	r5, r6
 800024e:	3803      	subeq	r0, #3
 8000250:	3807      	subne	r0, #7
 8000252:	f015 0f01 	tst.w	r5, #1
 8000256:	d107      	bne.n	8000268 <memchr+0x98>
 8000258:	3001      	adds	r0, #1
 800025a:	f415 7f80 	tst.w	r5, #256	; 0x100
 800025e:	bf02      	ittt	eq
 8000260:	3001      	addeq	r0, #1
 8000262:	f415 3fc0 	tsteq.w	r5, #98304	; 0x18000
 8000266:	3001      	addeq	r0, #1
 8000268:	bcf0      	pop	{r4, r5, r6, r7}
 800026a:	3801      	subs	r0, #1
 800026c:	4770      	bx	lr
 800026e:	bf00      	nop

08000270 <RCC_GetClocksFreq>:
  *           configuration based on this function will be incorrect.
  *    
  * @retval None
  */
void RCC_GetClocksFreq(RCC_ClocksTypeDef* RCC_Clocks)
{
 8000270:	b480      	push	{r7}
 8000272:	b08b      	sub	sp, #44	; 0x2c
 8000274:	af00      	add	r7, sp, #0
 8000276:	6078      	str	r0, [r7, #4]
  uint32_t tmp = 0, pllmull = 0, pllsource = 0, prediv1factor = 0, presc = 0, pllclk = 0;
 8000278:	2300      	movs	r3, #0
 800027a:	623b      	str	r3, [r7, #32]
 800027c:	2300      	movs	r3, #0
 800027e:	61fb      	str	r3, [r7, #28]
 8000280:	2300      	movs	r3, #0
 8000282:	61bb      	str	r3, [r7, #24]
 8000284:	2300      	movs	r3, #0
 8000286:	617b      	str	r3, [r7, #20]
 8000288:	2300      	movs	r3, #0
 800028a:	613b      	str	r3, [r7, #16]
 800028c:	2300      	movs	r3, #0
 800028e:	627b      	str	r3, [r7, #36]	; 0x24
  uint32_t apb2presc = 0, ahbpresc = 0;
 8000290:	2300      	movs	r3, #0
 8000292:	60fb      	str	r3, [r7, #12]
 8000294:	2300      	movs	r3, #0
 8000296:	60bb      	str	r3, [r7, #8]
  
  /* Get SYSCLK source -------------------------------------------------------*/
  tmp = RCC->CFGR & RCC_CFGR_SWS;
 8000298:	4b91      	ldr	r3, [pc, #580]	; (80004e0 <RCC_GetClocksFreq+0x270>)
 800029a:	685b      	ldr	r3, [r3, #4]
 800029c:	f003 030c 	and.w	r3, r3, #12
 80002a0:	623b      	str	r3, [r7, #32]
  
  switch (tmp)
 80002a2:	6a3b      	ldr	r3, [r7, #32]
 80002a4:	2b08      	cmp	r3, #8
 80002a6:	d011      	beq.n	80002cc <RCC_GetClocksFreq+0x5c>
 80002a8:	6a3b      	ldr	r3, [r7, #32]
 80002aa:	2b08      	cmp	r3, #8
 80002ac:	d837      	bhi.n	800031e <RCC_GetClocksFreq+0xae>
 80002ae:	6a3b      	ldr	r3, [r7, #32]
 80002b0:	2b00      	cmp	r3, #0
 80002b2:	d003      	beq.n	80002bc <RCC_GetClocksFreq+0x4c>
 80002b4:	6a3b      	ldr	r3, [r7, #32]
 80002b6:	2b04      	cmp	r3, #4
 80002b8:	d004      	beq.n	80002c4 <RCC_GetClocksFreq+0x54>
 80002ba:	e030      	b.n	800031e <RCC_GetClocksFreq+0xae>
  {
    case 0x00:  /* HSI used as system clock */
      RCC_Clocks->SYSCLK_Frequency = HSI_VALUE;
 80002bc:	687b      	ldr	r3, [r7, #4]
 80002be:	4a89      	ldr	r2, [pc, #548]	; (80004e4 <RCC_GetClocksFreq+0x274>)
 80002c0:	601a      	str	r2, [r3, #0]
      break;
 80002c2:	e030      	b.n	8000326 <RCC_GetClocksFreq+0xb6>
    case 0x04:  /* HSE used as system clock */
      RCC_Clocks->SYSCLK_Frequency = HSE_VALUE;
 80002c4:	687b      	ldr	r3, [r7, #4]
 80002c6:	4a87      	ldr	r2, [pc, #540]	; (80004e4 <RCC_GetClocksFreq+0x274>)
 80002c8:	601a      	str	r2, [r3, #0]
      break;
 80002ca:	e02c      	b.n	8000326 <RCC_GetClocksFreq+0xb6>
    case 0x08:  /* PLL used as system clock */
      /* Get PLL clock source and multiplication factor ----------------------*/
      pllmull = RCC->CFGR & RCC_CFGR_PLLMULL;
 80002cc:	4b84      	ldr	r3, [pc, #528]	; (80004e0 <RCC_GetClocksFreq+0x270>)
 80002ce:	685b      	ldr	r3, [r3, #4]
 80002d0:	f403 1370 	and.w	r3, r3, #3932160	; 0x3c0000
 80002d4:	61fb      	str	r3, [r7, #28]
      pllsource = RCC->CFGR & RCC_CFGR_PLLSRC;
 80002d6:	4b82      	ldr	r3, [pc, #520]	; (80004e0 <RCC_GetClocksFreq+0x270>)
 80002d8:	685b      	ldr	r3, [r3, #4]
 80002da:	f403 3380 	and.w	r3, r3, #65536	; 0x10000
 80002de:	61bb      	str	r3, [r7, #24]
      pllmull = ( pllmull >> 18) + 2;
 80002e0:	69fb      	ldr	r3, [r7, #28]
 80002e2:	0c9b      	lsrs	r3, r3, #18
 80002e4:	3302      	adds	r3, #2
 80002e6:	61fb      	str	r3, [r7, #28]
      
      if (pllsource == 0x00)
 80002e8:	69bb      	ldr	r3, [r7, #24]
 80002ea:	2b00      	cmp	r3, #0
 80002ec:	d105      	bne.n	80002fa <RCC_GetClocksFreq+0x8a>
      {
        /* HSI oscillator clock divided by 2 selected as PLL clock entry */
        pllclk = (HSI_VALUE >> 1) * pllmull;
 80002ee:	69fb      	ldr	r3, [r7, #28]
 80002f0:	4a7d      	ldr	r2, [pc, #500]	; (80004e8 <RCC_GetClocksFreq+0x278>)
 80002f2:	fb02 f303 	mul.w	r3, r2, r3
 80002f6:	627b      	str	r3, [r7, #36]	; 0x24
 80002f8:	e00d      	b.n	8000316 <RCC_GetClocksFreq+0xa6>
      }
      else
      {
        prediv1factor = (RCC->CFGR2 & RCC_CFGR2_PREDIV1) + 1;
 80002fa:	4b79      	ldr	r3, [pc, #484]	; (80004e0 <RCC_GetClocksFreq+0x270>)
 80002fc:	6adb      	ldr	r3, [r3, #44]	; 0x2c
 80002fe:	f003 030f 	and.w	r3, r3, #15
 8000302:	3301      	adds	r3, #1
 8000304:	617b      	str	r3, [r7, #20]
        /* HSE oscillator clock selected as PREDIV1 clock entry */
        pllclk = (HSE_VALUE / prediv1factor) * pllmull; 
 8000306:	4a77      	ldr	r2, [pc, #476]	; (80004e4 <RCC_GetClocksFreq+0x274>)
 8000308:	697b      	ldr	r3, [r7, #20]
 800030a:	fbb2 f2f3 	udiv	r2, r2, r3
 800030e:	69fb      	ldr	r3, [r7, #28]
 8000310:	fb02 f303 	mul.w	r3, r2, r3
 8000314:	627b      	str	r3, [r7, #36]	; 0x24
      }
      RCC_Clocks->SYSCLK_Frequency = pllclk;      
 8000316:	687b      	ldr	r3, [r7, #4]
 8000318:	6a7a      	ldr	r2, [r7, #36]	; 0x24
 800031a:	601a      	str	r2, [r3, #0]
      break;
 800031c:	e003      	b.n	8000326 <RCC_GetClocksFreq+0xb6>
    default: /* HSI used as system clock */
      RCC_Clocks->SYSCLK_Frequency = HSI_VALUE;
 800031e:	687b      	ldr	r3, [r7, #4]
 8000320:	4a70      	ldr	r2, [pc, #448]	; (80004e4 <RCC_GetClocksFreq+0x274>)
 8000322:	601a      	str	r2, [r3, #0]
      break;
 8000324:	bf00      	nop
  }
    /* Compute HCLK, PCLK clocks frequencies -----------------------------------*/
  /* Get HCLK prescaler */
  tmp = RCC->CFGR & RCC_CFGR_HPRE;
 8000326:	4b6e      	ldr	r3, [pc, #440]	; (80004e0 <RCC_GetClocksFreq+0x270>)
 8000328:	685b      	ldr	r3, [r3, #4]
 800032a:	f003 03f0 	and.w	r3, r3, #240	; 0xf0
 800032e:	623b      	str	r3, [r7, #32]
  tmp = tmp >> 4;
 8000330:	6a3b      	ldr	r3, [r7, #32]
 8000332:	091b      	lsrs	r3, r3, #4
 8000334:	623b      	str	r3, [r7, #32]
  ahbpresc = APBAHBPrescTable[tmp]; 
 8000336:	4a6d      	ldr	r2, [pc, #436]	; (80004ec <RCC_GetClocksFreq+0x27c>)
 8000338:	6a3b      	ldr	r3, [r7, #32]
 800033a:	4413      	add	r3, r2
 800033c:	781b      	ldrb	r3, [r3, #0]
 800033e:	b2db      	uxtb	r3, r3
 8000340:	60bb      	str	r3, [r7, #8]
  /* HCLK clock frequency */
  RCC_Clocks->HCLK_Frequency = RCC_Clocks->SYSCLK_Frequency >> ahbpresc;
 8000342:	687b      	ldr	r3, [r7, #4]
 8000344:	681a      	ldr	r2, [r3, #0]
 8000346:	68bb      	ldr	r3, [r7, #8]
 8000348:	40da      	lsrs	r2, r3
 800034a:	687b      	ldr	r3, [r7, #4]
 800034c:	605a      	str	r2, [r3, #4]

  /* Get PCLK1 prescaler */
  tmp = RCC->CFGR & RCC_CFGR_PPRE1;
 800034e:	4b64      	ldr	r3, [pc, #400]	; (80004e0 <RCC_GetClocksFreq+0x270>)
 8000350:	685b      	ldr	r3, [r3, #4]
 8000352:	f403 63e0 	and.w	r3, r3, #1792	; 0x700
 8000356:	623b      	str	r3, [r7, #32]
  tmp = tmp >> 8;
 8000358:	6a3b      	ldr	r3, [r7, #32]
 800035a:	0a1b      	lsrs	r3, r3, #8
 800035c:	623b      	str	r3, [r7, #32]
  presc = APBAHBPrescTable[tmp];
 800035e:	4a63      	ldr	r2, [pc, #396]	; (80004ec <RCC_GetClocksFreq+0x27c>)
 8000360:	6a3b      	ldr	r3, [r7, #32]
 8000362:	4413      	add	r3, r2
 8000364:	781b      	ldrb	r3, [r3, #0]
 8000366:	b2db      	uxtb	r3, r3
 8000368:	613b      	str	r3, [r7, #16]
  /* PCLK1 clock frequency */
  RCC_Clocks->PCLK1_Frequency = RCC_Clocks->HCLK_Frequency >> presc;
 800036a:	687b      	ldr	r3, [r7, #4]
 800036c:	685a      	ldr	r2, [r3, #4]
 800036e:	693b      	ldr	r3, [r7, #16]
 8000370:	40da      	lsrs	r2, r3
 8000372:	687b      	ldr	r3, [r7, #4]
 8000374:	609a      	str	r2, [r3, #8]
  
  /* Get PCLK2 prescaler */
  tmp = RCC->CFGR & RCC_CFGR_PPRE2;
 8000376:	4b5a      	ldr	r3, [pc, #360]	; (80004e0 <RCC_GetClocksFreq+0x270>)
 8000378:	685b      	ldr	r3, [r3, #4]
 800037a:	f403 5360 	and.w	r3, r3, #14336	; 0x3800
 800037e:	623b      	str	r3, [r7, #32]
  tmp = tmp >> 11;
 8000380:	6a3b      	ldr	r3, [r7, #32]
 8000382:	0adb      	lsrs	r3, r3, #11
 8000384:	623b      	str	r3, [r7, #32]
  apb2presc = APBAHBPrescTable[tmp];
 8000386:	4a59      	ldr	r2, [pc, #356]	; (80004ec <RCC_GetClocksFreq+0x27c>)
 8000388:	6a3b      	ldr	r3, [r7, #32]
 800038a:	4413      	add	r3, r2
 800038c:	781b      	ldrb	r3, [r3, #0]
 800038e:	b2db      	uxtb	r3, r3
 8000390:	60fb      	str	r3, [r7, #12]
  /* PCLK2 clock frequency */
  RCC_Clocks->PCLK2_Frequency = RCC_Clocks->HCLK_Frequency >> apb2presc;
 8000392:	687b      	ldr	r3, [r7, #4]
 8000394:	685a      	ldr	r2, [r3, #4]
 8000396:	68fb      	ldr	r3, [r7, #12]
 8000398:	40da      	lsrs	r2, r3
 800039a:	687b      	ldr	r3, [r7, #4]
 800039c:	60da      	str	r2, [r3, #12]
  
  /* Get ADC12CLK prescaler */
  tmp = RCC->CFGR2 & RCC_CFGR2_ADCPRE12;
 800039e:	4b50      	ldr	r3, [pc, #320]	; (80004e0 <RCC_GetClocksFreq+0x270>)
 80003a0:	6adb      	ldr	r3, [r3, #44]	; 0x2c
 80003a2:	f403 73f8 	and.w	r3, r3, #496	; 0x1f0
 80003a6:	623b      	str	r3, [r7, #32]
  tmp = tmp >> 4;
 80003a8:	6a3b      	ldr	r3, [r7, #32]
 80003aa:	091b      	lsrs	r3, r3, #4
 80003ac:	623b      	str	r3, [r7, #32]
  presc = ADCPrescTable[tmp];
 80003ae:	4a50      	ldr	r2, [pc, #320]	; (80004f0 <RCC_GetClocksFreq+0x280>)
 80003b0:	6a3b      	ldr	r3, [r7, #32]
 80003b2:	f832 3013 	ldrh.w	r3, [r2, r3, lsl #1]
 80003b6:	b29b      	uxth	r3, r3
 80003b8:	613b      	str	r3, [r7, #16]
  if ((presc & 0x10) != 0)
 80003ba:	693b      	ldr	r3, [r7, #16]
 80003bc:	f003 0310 	and.w	r3, r3, #16
 80003c0:	2b00      	cmp	r3, #0
 80003c2:	d006      	beq.n	80003d2 <RCC_GetClocksFreq+0x162>
  {
     /* ADC12CLK clock frequency is derived from PLL clock */
     RCC_Clocks->ADC12CLK_Frequency = pllclk / presc;
 80003c4:	6a7a      	ldr	r2, [r7, #36]	; 0x24
 80003c6:	693b      	ldr	r3, [r7, #16]
 80003c8:	fbb2 f2f3 	udiv	r2, r2, r3
 80003cc:	687b      	ldr	r3, [r7, #4]
 80003ce:	611a      	str	r2, [r3, #16]
 80003d0:	e003      	b.n	80003da <RCC_GetClocksFreq+0x16a>
  }
  else
  {
   /* ADC12CLK clock frequency is AHB clock */
     RCC_Clocks->ADC12CLK_Frequency = RCC_Clocks->SYSCLK_Frequency;
 80003d2:	687b      	ldr	r3, [r7, #4]
 80003d4:	681a      	ldr	r2, [r3, #0]
 80003d6:	687b      	ldr	r3, [r7, #4]
 80003d8:	611a      	str	r2, [r3, #16]
  }
  
  /* Get ADC34CLK prescaler */
  tmp = RCC->CFGR2 & RCC_CFGR2_ADCPRE34;
 80003da:	4b41      	ldr	r3, [pc, #260]	; (80004e0 <RCC_GetClocksFreq+0x270>)
 80003dc:	6adb      	ldr	r3, [r3, #44]	; 0x2c
 80003de:	f403 5378 	and.w	r3, r3, #15872	; 0x3e00
 80003e2:	623b      	str	r3, [r7, #32]
  tmp = tmp >> 9;
 80003e4:	6a3b      	ldr	r3, [r7, #32]
 80003e6:	0a5b      	lsrs	r3, r3, #9
 80003e8:	623b      	str	r3, [r7, #32]
  presc = ADCPrescTable[tmp];
 80003ea:	4a41      	ldr	r2, [pc, #260]	; (80004f0 <RCC_GetClocksFreq+0x280>)
 80003ec:	6a3b      	ldr	r3, [r7, #32]
 80003ee:	f832 3013 	ldrh.w	r3, [r2, r3, lsl #1]
 80003f2:	b29b      	uxth	r3, r3
 80003f4:	613b      	str	r3, [r7, #16]
  if ((presc & 0x10) != 0)
 80003f6:	693b      	ldr	r3, [r7, #16]
 80003f8:	f003 0310 	and.w	r3, r3, #16
 80003fc:	2b00      	cmp	r3, #0
 80003fe:	d006      	beq.n	800040e <RCC_GetClocksFreq+0x19e>
  {
     /* ADC34CLK clock frequency is derived from PLL clock */
     RCC_Clocks->ADC34CLK_Frequency = pllclk / presc;
 8000400:	6a7a      	ldr	r2, [r7, #36]	; 0x24
 8000402:	693b      	ldr	r3, [r7, #16]
 8000404:	fbb2 f2f3 	udiv	r2, r2, r3
 8000408:	687b      	ldr	r3, [r7, #4]
 800040a:	615a      	str	r2, [r3, #20]
 800040c:	e003      	b.n	8000416 <RCC_GetClocksFreq+0x1a6>
  }
  else
  {
   /* ADC34CLK clock frequency is AHB clock */
     RCC_Clocks->ADC34CLK_Frequency = RCC_Clocks->SYSCLK_Frequency;
 800040e:	687b      	ldr	r3, [r7, #4]
 8000410:	681a      	ldr	r2, [r3, #0]
 8000412:	687b      	ldr	r3, [r7, #4]
 8000414:	615a      	str	r2, [r3, #20]
  }

  /* I2C1CLK clock frequency */
  if((RCC->CFGR3 & RCC_CFGR3_I2C1SW) != RCC_CFGR3_I2C1SW)
 8000416:	4b32      	ldr	r3, [pc, #200]	; (80004e0 <RCC_GetClocksFreq+0x270>)
 8000418:	6b1b      	ldr	r3, [r3, #48]	; 0x30
 800041a:	f003 0310 	and.w	r3, r3, #16
 800041e:	2b10      	cmp	r3, #16
 8000420:	d003      	beq.n	800042a <RCC_GetClocksFreq+0x1ba>
  {
    /* I2C1 Clock is HSI Osc. */
    RCC_Clocks->I2C1CLK_Frequency = HSI_VALUE;
 8000422:	687b      	ldr	r3, [r7, #4]
 8000424:	4a2f      	ldr	r2, [pc, #188]	; (80004e4 <RCC_GetClocksFreq+0x274>)
 8000426:	619a      	str	r2, [r3, #24]
 8000428:	e003      	b.n	8000432 <RCC_GetClocksFreq+0x1c2>
  }
  else
  {
    /* I2C1 Clock is System Clock */
    RCC_Clocks->I2C1CLK_Frequency = RCC_Clocks->SYSCLK_Frequency;
 800042a:	687b      	ldr	r3, [r7, #4]
 800042c:	681a      	ldr	r2, [r3, #0]
 800042e:	687b      	ldr	r3, [r7, #4]
 8000430:	619a      	str	r2, [r3, #24]
  }

  /* I2C2CLK clock frequency */
  if((RCC->CFGR3 & RCC_CFGR3_I2C2SW) != RCC_CFGR3_I2C2SW)
 8000432:	4b2b      	ldr	r3, [pc, #172]	; (80004e0 <RCC_GetClocksFreq+0x270>)
 8000434:	6b1b      	ldr	r3, [r3, #48]	; 0x30
 8000436:	f003 0320 	and.w	r3, r3, #32
 800043a:	2b20      	cmp	r3, #32
 800043c:	d003      	beq.n	8000446 <RCC_GetClocksFreq+0x1d6>
  {
    /* I2C2 Clock is HSI Osc. */
    RCC_Clocks->I2C2CLK_Frequency = HSI_VALUE;
 800043e:	687b      	ldr	r3, [r7, #4]
 8000440:	4a28      	ldr	r2, [pc, #160]	; (80004e4 <RCC_GetClocksFreq+0x274>)
 8000442:	61da      	str	r2, [r3, #28]
 8000444:	e003      	b.n	800044e <RCC_GetClocksFreq+0x1de>
  }
  else
  {
    /* I2C2 Clock is System Clock */
    RCC_Clocks->I2C2CLK_Frequency = RCC_Clocks->SYSCLK_Frequency;
 8000446:	687b      	ldr	r3, [r7, #4]
 8000448:	681a      	ldr	r2, [r3, #0]
 800044a:	687b      	ldr	r3, [r7, #4]
 800044c:	61da      	str	r2, [r3, #28]
  }
  
    /* TIM1CLK clock frequency */
  if(((RCC->CFGR3 & RCC_CFGR3_TIM1SW) == RCC_CFGR3_TIM1SW)&& (RCC_Clocks->SYSCLK_Frequency == pllclk) \
 800044e:	4b24      	ldr	r3, [pc, #144]	; (80004e0 <RCC_GetClocksFreq+0x270>)
 8000450:	6b1b      	ldr	r3, [r3, #48]	; 0x30
 8000452:	f403 7380 	and.w	r3, r3, #256	; 0x100
 8000456:	f5b3 7f80 	cmp.w	r3, #256	; 0x100
 800045a:	d10d      	bne.n	8000478 <RCC_GetClocksFreq+0x208>
 800045c:	687b      	ldr	r3, [r7, #4]
 800045e:	681b      	ldr	r3, [r3, #0]
 8000460:	6a7a      	ldr	r2, [r7, #36]	; 0x24
 8000462:	429a      	cmp	r2, r3
 8000464:	d108      	bne.n	8000478 <RCC_GetClocksFreq+0x208>
  && (apb2presc == ahbpresc)) 
 8000466:	68fa      	ldr	r2, [r7, #12]
 8000468:	68bb      	ldr	r3, [r7, #8]
 800046a:	429a      	cmp	r2, r3
 800046c:	d104      	bne.n	8000478 <RCC_GetClocksFreq+0x208>
  {
    /* TIM1 Clock is 2 * pllclk */
    RCC_Clocks->TIM1CLK_Frequency = pllclk * 2;
 800046e:	6a7b      	ldr	r3, [r7, #36]	; 0x24
 8000470:	005a      	lsls	r2, r3, #1
 8000472:	687b      	ldr	r3, [r7, #4]
 8000474:	621a      	str	r2, [r3, #32]
 8000476:	e003      	b.n	8000480 <RCC_GetClocksFreq+0x210>
  }
  else
  {
    /* TIM1 Clock is APB2 clock. */
    RCC_Clocks->TIM1CLK_Frequency = RCC_Clocks->PCLK2_Frequency;
 8000478:	687b      	ldr	r3, [r7, #4]
 800047a:	68da      	ldr	r2, [r3, #12]
 800047c:	687b      	ldr	r3, [r7, #4]
 800047e:	621a      	str	r2, [r3, #32]
  }

    /* TIM8CLK clock frequency */
  if(((RCC->CFGR3 & RCC_CFGR3_TIM8SW) == RCC_CFGR3_TIM8SW)&& (RCC_Clocks->SYSCLK_Frequency == pllclk) \
 8000480:	4b17      	ldr	r3, [pc, #92]	; (80004e0 <RCC_GetClocksFreq+0x270>)
 8000482:	6b1b      	ldr	r3, [r3, #48]	; 0x30
 8000484:	f403 7300 	and.w	r3, r3, #512	; 0x200
 8000488:	f5b3 7f00 	cmp.w	r3, #512	; 0x200
 800048c:	d10d      	bne.n	80004aa <RCC_GetClocksFreq+0x23a>
 800048e:	687b      	ldr	r3, [r7, #4]
 8000490:	681b      	ldr	r3, [r3, #0]
 8000492:	6a7a      	ldr	r2, [r7, #36]	; 0x24
 8000494:	429a      	cmp	r2, r3
 8000496:	d108      	bne.n	80004aa <RCC_GetClocksFreq+0x23a>
  && (apb2presc == ahbpresc))
 8000498:	68fa      	ldr	r2, [r7, #12]
 800049a:	68bb      	ldr	r3, [r7, #8]
 800049c:	429a      	cmp	r2, r3
 800049e:	d104      	bne.n	80004aa <RCC_GetClocksFreq+0x23a>
  {
    /* TIM8 Clock is 2 * pllclk */
    RCC_Clocks->TIM8CLK_Frequency = pllclk * 2;
 80004a0:	6a7b      	ldr	r3, [r7, #36]	; 0x24
 80004a2:	005a      	lsls	r2, r3, #1
 80004a4:	687b      	ldr	r3, [r7, #4]
 80004a6:	625a      	str	r2, [r3, #36]	; 0x24
 80004a8:	e003      	b.n	80004b2 <RCC_GetClocksFreq+0x242>
  }
  else
  {
    /* TIM8 Clock is APB2 clock. */
    RCC_Clocks->TIM8CLK_Frequency = RCC_Clocks->PCLK2_Frequency;
 80004aa:	687b      	ldr	r3, [r7, #4]
 80004ac:	68da      	ldr	r2, [r3, #12]
 80004ae:	687b      	ldr	r3, [r7, #4]
 80004b0:	625a      	str	r2, [r3, #36]	; 0x24
  }
  
  /* USART1CLK clock frequency */
  if((RCC->CFGR3 & RCC_CFGR3_USART1SW) == 0x0)
 80004b2:	4b0b      	ldr	r3, [pc, #44]	; (80004e0 <RCC_GetClocksFreq+0x270>)
 80004b4:	6b1b      	ldr	r3, [r3, #48]	; 0x30
 80004b6:	f003 0303 	and.w	r3, r3, #3
 80004ba:	2b00      	cmp	r3, #0
 80004bc:	d104      	bne.n	80004c8 <RCC_GetClocksFreq+0x258>
  {
    /* USART Clock is PCLK */
    RCC_Clocks->USART1CLK_Frequency = RCC_Clocks->PCLK2_Frequency;
 80004be:	687b      	ldr	r3, [r7, #4]
 80004c0:	68da      	ldr	r2, [r3, #12]
 80004c2:	687b      	ldr	r3, [r7, #4]
 80004c4:	629a      	str	r2, [r3, #40]	; 0x28
 80004c6:	e029      	b.n	800051c <RCC_GetClocksFreq+0x2ac>
  }
  else if((RCC->CFGR3 & RCC_CFGR3_USART1SW) == RCC_CFGR3_USART1SW_0)
 80004c8:	4b05      	ldr	r3, [pc, #20]	; (80004e0 <RCC_GetClocksFreq+0x270>)
 80004ca:	6b1b      	ldr	r3, [r3, #48]	; 0x30
 80004cc:	f003 0303 	and.w	r3, r3, #3
 80004d0:	2b01      	cmp	r3, #1
 80004d2:	d10f      	bne.n	80004f4 <RCC_GetClocksFreq+0x284>
  {
    /* USART Clock is System Clock */
    RCC_Clocks->USART1CLK_Frequency = RCC_Clocks->SYSCLK_Frequency;
 80004d4:	687b      	ldr	r3, [r7, #4]
 80004d6:	681a      	ldr	r2, [r3, #0]
 80004d8:	687b      	ldr	r3, [r7, #4]
 80004da:	629a      	str	r2, [r3, #40]	; 0x28
 80004dc:	e01e      	b.n	800051c <RCC_GetClocksFreq+0x2ac>
 80004de:	bf00      	nop
 80004e0:	40021000 	.word	0x40021000
 80004e4:	007a1200 	.word	0x007a1200
 80004e8:	003d0900 	.word	0x003d0900
 80004ec:	20000000 	.word	0x20000000
 80004f0:	20000010 	.word	0x20000010
  }
  else if((RCC->CFGR3 & RCC_CFGR3_USART1SW) == RCC_CFGR3_USART1SW_1)
 80004f4:	4b66      	ldr	r3, [pc, #408]	; (8000690 <RCC_GetClocksFreq+0x420>)
 80004f6:	6b1b      	ldr	r3, [r3, #48]	; 0x30
 80004f8:	f003 0303 	and.w	r3, r3, #3
 80004fc:	2b02      	cmp	r3, #2
 80004fe:	d104      	bne.n	800050a <RCC_GetClocksFreq+0x29a>
  {
    /* USART Clock is LSE Osc. */
    RCC_Clocks->USART1CLK_Frequency = LSE_VALUE;
 8000500:	687b      	ldr	r3, [r7, #4]
 8000502:	f44f 4200 	mov.w	r2, #32768	; 0x8000
 8000506:	629a      	str	r2, [r3, #40]	; 0x28
 8000508:	e008      	b.n	800051c <RCC_GetClocksFreq+0x2ac>
  }
  else if((RCC->CFGR3 & RCC_CFGR3_USART1SW) == RCC_CFGR3_USART1SW)
 800050a:	4b61      	ldr	r3, [pc, #388]	; (8000690 <RCC_GetClocksFreq+0x420>)
 800050c:	6b1b      	ldr	r3, [r3, #48]	; 0x30
 800050e:	f003 0303 	and.w	r3, r3, #3
 8000512:	2b03      	cmp	r3, #3
 8000514:	d102      	bne.n	800051c <RCC_GetClocksFreq+0x2ac>
  {
    /* USART Clock is HSI Osc. */
    RCC_Clocks->USART1CLK_Frequency = HSI_VALUE;
 8000516:	687b      	ldr	r3, [r7, #4]
 8000518:	4a5e      	ldr	r2, [pc, #376]	; (8000694 <RCC_GetClocksFreq+0x424>)
 800051a:	629a      	str	r2, [r3, #40]	; 0x28
  }

  /* USART2CLK clock frequency */
  if((RCC->CFGR3 & RCC_CFGR3_USART2SW) == 0x0)
 800051c:	4b5c      	ldr	r3, [pc, #368]	; (8000690 <RCC_GetClocksFreq+0x420>)
 800051e:	6b1b      	ldr	r3, [r3, #48]	; 0x30
 8000520:	f403 3340 	and.w	r3, r3, #196608	; 0x30000
 8000524:	2b00      	cmp	r3, #0
 8000526:	d104      	bne.n	8000532 <RCC_GetClocksFreq+0x2c2>
  {
    /* USART Clock is PCLK */
    RCC_Clocks->USART2CLK_Frequency = RCC_Clocks->PCLK1_Frequency;
 8000528:	687b      	ldr	r3, [r7, #4]
 800052a:	689a      	ldr	r2, [r3, #8]
 800052c:	687b      	ldr	r3, [r7, #4]
 800052e:	62da      	str	r2, [r3, #44]	; 0x2c
 8000530:	e021      	b.n	8000576 <RCC_GetClocksFreq+0x306>
  }
  else if((RCC->CFGR3 & RCC_CFGR3_USART2SW) == RCC_CFGR3_USART2SW_0)
 8000532:	4b57      	ldr	r3, [pc, #348]	; (8000690 <RCC_GetClocksFreq+0x420>)
 8000534:	6b1b      	ldr	r3, [r3, #48]	; 0x30
 8000536:	f403 3340 	and.w	r3, r3, #196608	; 0x30000
 800053a:	f5b3 3f80 	cmp.w	r3, #65536	; 0x10000
 800053e:	d104      	bne.n	800054a <RCC_GetClocksFreq+0x2da>
  {
    /* USART Clock is System Clock */
    RCC_Clocks->USART2CLK_Frequency = RCC_Clocks->SYSCLK_Frequency;
 8000540:	687b      	ldr	r3, [r7, #4]
 8000542:	681a      	ldr	r2, [r3, #0]
 8000544:	687b      	ldr	r3, [r7, #4]
 8000546:	62da      	str	r2, [r3, #44]	; 0x2c
 8000548:	e015      	b.n	8000576 <RCC_GetClocksFreq+0x306>
  }
  else if((RCC->CFGR3 & RCC_CFGR3_USART2SW) == RCC_CFGR3_USART2SW_1)
 800054a:	4b51      	ldr	r3, [pc, #324]	; (8000690 <RCC_GetClocksFreq+0x420>)
 800054c:	6b1b      	ldr	r3, [r3, #48]	; 0x30
 800054e:	f403 3340 	and.w	r3, r3, #196608	; 0x30000
 8000552:	f5b3 3f00 	cmp.w	r3, #131072	; 0x20000
 8000556:	d104      	bne.n	8000562 <RCC_GetClocksFreq+0x2f2>
  {
    /* USART Clock is LSE Osc. */
    RCC_Clocks->USART2CLK_Frequency = LSE_VALUE;
 8000558:	687b      	ldr	r3, [r7, #4]
 800055a:	f44f 4200 	mov.w	r2, #32768	; 0x8000
 800055e:	62da      	str	r2, [r3, #44]	; 0x2c
 8000560:	e009      	b.n	8000576 <RCC_GetClocksFreq+0x306>
  }
  else if((RCC->CFGR3 & RCC_CFGR3_USART2SW) == RCC_CFGR3_USART2SW)
 8000562:	4b4b      	ldr	r3, [pc, #300]	; (8000690 <RCC_GetClocksFreq+0x420>)
 8000564:	6b1b      	ldr	r3, [r3, #48]	; 0x30
 8000566:	f403 3340 	and.w	r3, r3, #196608	; 0x30000
 800056a:	f5b3 3f40 	cmp.w	r3, #196608	; 0x30000
 800056e:	d102      	bne.n	8000576 <RCC_GetClocksFreq+0x306>
  {
    /* USART Clock is HSI Osc. */
    RCC_Clocks->USART2CLK_Frequency = HSI_VALUE;
 8000570:	687b      	ldr	r3, [r7, #4]
 8000572:	4a48      	ldr	r2, [pc, #288]	; (8000694 <RCC_GetClocksFreq+0x424>)
 8000574:	62da      	str	r2, [r3, #44]	; 0x2c
  }    

  /* USART3CLK clock frequency */
  if((RCC->CFGR3 & RCC_CFGR3_USART3SW) == 0x0)
 8000576:	4b46      	ldr	r3, [pc, #280]	; (8000690 <RCC_GetClocksFreq+0x420>)
 8000578:	6b1b      	ldr	r3, [r3, #48]	; 0x30
 800057a:	f403 2340 	and.w	r3, r3, #786432	; 0xc0000
 800057e:	2b00      	cmp	r3, #0
 8000580:	d104      	bne.n	800058c <RCC_GetClocksFreq+0x31c>
  {
    /* USART Clock is PCLK */
    RCC_Clocks->USART3CLK_Frequency = RCC_Clocks->PCLK1_Frequency;
 8000582:	687b      	ldr	r3, [r7, #4]
 8000584:	689a      	ldr	r2, [r3, #8]
 8000586:	687b      	ldr	r3, [r7, #4]
 8000588:	631a      	str	r2, [r3, #48]	; 0x30
 800058a:	e021      	b.n	80005d0 <RCC_GetClocksFreq+0x360>
  }
  else if((RCC->CFGR3 & RCC_CFGR3_USART3SW) == RCC_CFGR3_USART3SW_0)
 800058c:	4b40      	ldr	r3, [pc, #256]	; (8000690 <RCC_GetClocksFreq+0x420>)
 800058e:	6b1b      	ldr	r3, [r3, #48]	; 0x30
 8000590:	f403 2340 	and.w	r3, r3, #786432	; 0xc0000
 8000594:	f5b3 2f80 	cmp.w	r3, #262144	; 0x40000
 8000598:	d104      	bne.n	80005a4 <RCC_GetClocksFreq+0x334>
  {
    /* USART Clock is System Clock */
    RCC_Clocks->USART3CLK_Frequency = RCC_Clocks->SYSCLK_Frequency;
 800059a:	687b      	ldr	r3, [r7, #4]
 800059c:	681a      	ldr	r2, [r3, #0]
 800059e:	687b      	ldr	r3, [r7, #4]
 80005a0:	631a      	str	r2, [r3, #48]	; 0x30
 80005a2:	e015      	b.n	80005d0 <RCC_GetClocksFreq+0x360>
  }
  else if((RCC->CFGR3 & RCC_CFGR3_USART3SW) == RCC_CFGR3_USART3SW_1)
 80005a4:	4b3a      	ldr	r3, [pc, #232]	; (8000690 <RCC_GetClocksFreq+0x420>)
 80005a6:	6b1b      	ldr	r3, [r3, #48]	; 0x30
 80005a8:	f403 2340 	and.w	r3, r3, #786432	; 0xc0000
 80005ac:	f5b3 2f00 	cmp.w	r3, #524288	; 0x80000
 80005b0:	d104      	bne.n	80005bc <RCC_GetClocksFreq+0x34c>
  {
    /* USART Clock is LSE Osc. */
    RCC_Clocks->USART3CLK_Frequency = LSE_VALUE;
 80005b2:	687b      	ldr	r3, [r7, #4]
 80005b4:	f44f 4200 	mov.w	r2, #32768	; 0x8000
 80005b8:	631a      	str	r2, [r3, #48]	; 0x30
 80005ba:	e009      	b.n	80005d0 <RCC_GetClocksFreq+0x360>
  }
  else if((RCC->CFGR3 & RCC_CFGR3_USART3SW) == RCC_CFGR3_USART3SW)
 80005bc:	4b34      	ldr	r3, [pc, #208]	; (8000690 <RCC_GetClocksFreq+0x420>)
 80005be:	6b1b      	ldr	r3, [r3, #48]	; 0x30
 80005c0:	f403 2340 	and.w	r3, r3, #786432	; 0xc0000
 80005c4:	f5b3 2f40 	cmp.w	r3, #786432	; 0xc0000
 80005c8:	d102      	bne.n	80005d0 <RCC_GetClocksFreq+0x360>
  {
    /* USART Clock is HSI Osc. */
    RCC_Clocks->USART3CLK_Frequency = HSI_VALUE;
 80005ca:	687b      	ldr	r3, [r7, #4]
 80005cc:	4a31      	ldr	r2, [pc, #196]	; (8000694 <RCC_GetClocksFreq+0x424>)
 80005ce:	631a      	str	r2, [r3, #48]	; 0x30
  }
  
    /* UART4CLK clock frequency */
  if((RCC->CFGR3 & RCC_CFGR3_UART4SW) == 0x0)
 80005d0:	4b2f      	ldr	r3, [pc, #188]	; (8000690 <RCC_GetClocksFreq+0x420>)
 80005d2:	6b1b      	ldr	r3, [r3, #48]	; 0x30
 80005d4:	f403 1340 	and.w	r3, r3, #3145728	; 0x300000
 80005d8:	2b00      	cmp	r3, #0
 80005da:	d104      	bne.n	80005e6 <RCC_GetClocksFreq+0x376>
  {
    /* USART Clock is PCLK */
    RCC_Clocks->UART4CLK_Frequency = RCC_Clocks->PCLK1_Frequency;
 80005dc:	687b      	ldr	r3, [r7, #4]
 80005de:	689a      	ldr	r2, [r3, #8]
 80005e0:	687b      	ldr	r3, [r7, #4]
 80005e2:	635a      	str	r2, [r3, #52]	; 0x34
 80005e4:	e021      	b.n	800062a <RCC_GetClocksFreq+0x3ba>
  }
  else if((RCC->CFGR3 & RCC_CFGR3_UART4SW) == RCC_CFGR3_UART4SW_0)
 80005e6:	4b2a      	ldr	r3, [pc, #168]	; (8000690 <RCC_GetClocksFreq+0x420>)
 80005e8:	6b1b      	ldr	r3, [r3, #48]	; 0x30
 80005ea:	f403 1340 	and.w	r3, r3, #3145728	; 0x300000
 80005ee:	f5b3 1f80 	cmp.w	r3, #1048576	; 0x100000
 80005f2:	d104      	bne.n	80005fe <RCC_GetClocksFreq+0x38e>
  {
    /* USART Clock is System Clock */
    RCC_Clocks->UART4CLK_Frequency = RCC_Clocks->SYSCLK_Frequency;
 80005f4:	687b      	ldr	r3, [r7, #4]
 80005f6:	681a      	ldr	r2, [r3, #0]
 80005f8:	687b      	ldr	r3, [r7, #4]
 80005fa:	635a      	str	r2, [r3, #52]	; 0x34
 80005fc:	e015      	b.n	800062a <RCC_GetClocksFreq+0x3ba>
  }
  else if((RCC->CFGR3 & RCC_CFGR3_UART4SW) == RCC_CFGR3_UART4SW_1)
 80005fe:	4b24      	ldr	r3, [pc, #144]	; (8000690 <RCC_GetClocksFreq+0x420>)
 8000600:	6b1b      	ldr	r3, [r3, #48]	; 0x30
 8000602:	f403 1340 	and.w	r3, r3, #3145728	; 0x300000
 8000606:	f5b3 1f00 	cmp.w	r3, #2097152	; 0x200000
 800060a:	d104      	bne.n	8000616 <RCC_GetClocksFreq+0x3a6>
  {
    /* USART Clock is LSE Osc. */
    RCC_Clocks->UART4CLK_Frequency = LSE_VALUE;
 800060c:	687b      	ldr	r3, [r7, #4]
 800060e:	f44f 4200 	mov.w	r2, #32768	; 0x8000
 8000612:	635a      	str	r2, [r3, #52]	; 0x34
 8000614:	e009      	b.n	800062a <RCC_GetClocksFreq+0x3ba>
  }
  else if((RCC->CFGR3 & RCC_CFGR3_UART4SW) == RCC_CFGR3_UART4SW)
 8000616:	4b1e      	ldr	r3, [pc, #120]	; (8000690 <RCC_GetClocksFreq+0x420>)
 8000618:	6b1b      	ldr	r3, [r3, #48]	; 0x30
 800061a:	f403 1340 	and.w	r3, r3, #3145728	; 0x300000
 800061e:	f5b3 1f40 	cmp.w	r3, #3145728	; 0x300000
 8000622:	d102      	bne.n	800062a <RCC_GetClocksFreq+0x3ba>
  {
    /* USART Clock is HSI Osc. */
    RCC_Clocks->UART4CLK_Frequency = HSI_VALUE;
 8000624:	687b      	ldr	r3, [r7, #4]
 8000626:	4a1b      	ldr	r2, [pc, #108]	; (8000694 <RCC_GetClocksFreq+0x424>)
 8000628:	635a      	str	r2, [r3, #52]	; 0x34
  }   
  
  /* UART5CLK clock frequency */
  if((RCC->CFGR3 & RCC_CFGR3_UART5SW) == 0x0)
 800062a:	4b19      	ldr	r3, [pc, #100]	; (8000690 <RCC_GetClocksFreq+0x420>)
 800062c:	6b1b      	ldr	r3, [r3, #48]	; 0x30
 800062e:	f403 0340 	and.w	r3, r3, #12582912	; 0xc00000
 8000632:	2b00      	cmp	r3, #0
 8000634:	d104      	bne.n	8000640 <RCC_GetClocksFreq+0x3d0>
  {
    /* USART Clock is PCLK */
    RCC_Clocks->UART5CLK_Frequency = RCC_Clocks->PCLK1_Frequency;
 8000636:	687b      	ldr	r3, [r7, #4]
 8000638:	689a      	ldr	r2, [r3, #8]
 800063a:	687b      	ldr	r3, [r7, #4]
 800063c:	639a      	str	r2, [r3, #56]	; 0x38
  else if((RCC->CFGR3 & RCC_CFGR3_UART5SW) == RCC_CFGR3_UART5SW)
  {
    /* USART Clock is HSI Osc. */
    RCC_Clocks->UART5CLK_Frequency = HSI_VALUE;
  } 
}
 800063e:	e021      	b.n	8000684 <RCC_GetClocksFreq+0x414>
  else if((RCC->CFGR3 & RCC_CFGR3_UART5SW) == RCC_CFGR3_UART5SW_0)
 8000640:	4b13      	ldr	r3, [pc, #76]	; (8000690 <RCC_GetClocksFreq+0x420>)
 8000642:	6b1b      	ldr	r3, [r3, #48]	; 0x30
 8000644:	f403 0340 	and.w	r3, r3, #12582912	; 0xc00000
 8000648:	f5b3 0f80 	cmp.w	r3, #4194304	; 0x400000
 800064c:	d104      	bne.n	8000658 <RCC_GetClocksFreq+0x3e8>
    RCC_Clocks->UART5CLK_Frequency = RCC_Clocks->SYSCLK_Frequency;
 800064e:	687b      	ldr	r3, [r7, #4]
 8000650:	681a      	ldr	r2, [r3, #0]
 8000652:	687b      	ldr	r3, [r7, #4]
 8000654:	639a      	str	r2, [r3, #56]	; 0x38
}
 8000656:	e015      	b.n	8000684 <RCC_GetClocksFreq+0x414>
  else if((RCC->CFGR3 & RCC_CFGR3_UART5SW) == RCC_CFGR3_UART5SW_1)
 8000658:	4b0d      	ldr	r3, [pc, #52]	; (8000690 <RCC_GetClocksFreq+0x420>)
 800065a:	6b1b      	ldr	r3, [r3, #48]	; 0x30
 800065c:	f403 0340 	and.w	r3, r3, #12582912	; 0xc00000
 8000660:	f5b3 0f00 	cmp.w	r3, #8388608	; 0x800000
 8000664:	d104      	bne.n	8000670 <RCC_GetClocksFreq+0x400>
    RCC_Clocks->UART5CLK_Frequency = LSE_VALUE;
 8000666:	687b      	ldr	r3, [r7, #4]
 8000668:	f44f 4200 	mov.w	r2, #32768	; 0x8000
 800066c:	639a      	str	r2, [r3, #56]	; 0x38
}
 800066e:	e009      	b.n	8000684 <RCC_GetClocksFreq+0x414>
  else if((RCC->CFGR3 & RCC_CFGR3_UART5SW) == RCC_CFGR3_UART5SW)
 8000670:	4b07      	ldr	r3, [pc, #28]	; (8000690 <RCC_GetClocksFreq+0x420>)
 8000672:	6b1b      	ldr	r3, [r3, #48]	; 0x30
 8000674:	f403 0340 	and.w	r3, r3, #12582912	; 0xc00000
 8000678:	f5b3 0f40 	cmp.w	r3, #12582912	; 0xc00000
 800067c:	d102      	bne.n	8000684 <RCC_GetClocksFreq+0x414>
    RCC_Clocks->UART5CLK_Frequency = HSI_VALUE;
 800067e:	687b      	ldr	r3, [r7, #4]
 8000680:	4a04      	ldr	r2, [pc, #16]	; (8000694 <RCC_GetClocksFreq+0x424>)
 8000682:	639a      	str	r2, [r3, #56]	; 0x38
}
 8000684:	bf00      	nop
 8000686:	372c      	adds	r7, #44	; 0x2c
 8000688:	46bd      	mov	sp, r7
 800068a:	f85d 7b04 	ldr.w	r7, [sp], #4
 800068e:	4770      	bx	lr
 8000690:	40021000 	.word	0x40021000
 8000694:	007a1200 	.word	0x007a1200

08000698 <SPI_SendData8>:
  * @param  SPIx: where x can be 1, 2 or 3 to select the SPI peripheral.
  * @param  Data: Data to be transmitted.
  * @retval None
  */
void SPI_SendData8(SPI_TypeDef* SPIx, uint8_t Data)
{
 8000698:	b480      	push	{r7}
 800069a:	b085      	sub	sp, #20
 800069c:	af00      	add	r7, sp, #0
 800069e:	6078      	str	r0, [r7, #4]
 80006a0:	460b      	mov	r3, r1
 80006a2:	70fb      	strb	r3, [r7, #3]
  uint32_t spixbase = 0x00;
 80006a4:	2300      	movs	r3, #0
 80006a6:	60fb      	str	r3, [r7, #12]

  /* Check the parameters */
  assert_param(IS_SPI_ALL_PERIPH(SPIx));

  spixbase = (uint32_t)SPIx; 
 80006a8:	687b      	ldr	r3, [r7, #4]
 80006aa:	60fb      	str	r3, [r7, #12]
  spixbase += 0x0C;
 80006ac:	68fb      	ldr	r3, [r7, #12]
 80006ae:	330c      	adds	r3, #12
 80006b0:	60fb      	str	r3, [r7, #12]
  
  *(__IO uint8_t *) spixbase = Data;
 80006b2:	68fb      	ldr	r3, [r7, #12]
 80006b4:	78fa      	ldrb	r2, [r7, #3]
 80006b6:	701a      	strb	r2, [r3, #0]
}
 80006b8:	bf00      	nop
 80006ba:	3714      	adds	r7, #20
 80006bc:	46bd      	mov	sp, r7
 80006be:	f85d 7b04 	ldr.w	r7, [sp], #4
 80006c2:	4770      	bx	lr

080006c4 <SPI_I2S_GetFlagStatus>:
  *     @arg I2S_FLAG_UDR: Underrun Error flag.
  *     @arg I2S_FLAG_CHSIDE: Channel Side flag.   
  * @retval The new state of SPI_I2S_FLAG (SET or RESET).
  */
FlagStatus SPI_I2S_GetFlagStatus(SPI_TypeDef* SPIx, uint16_t SPI_I2S_FLAG)
{
 80006c4:	b480      	push	{r7}
 80006c6:	b085      	sub	sp, #20
 80006c8:	af00      	add	r7, sp, #0
 80006ca:	6078      	str	r0, [r7, #4]
 80006cc:	460b      	mov	r3, r1
 80006ce:	807b      	strh	r3, [r7, #2]
  FlagStatus bitstatus = RESET;
 80006d0:	2300      	movs	r3, #0
 80006d2:	73fb      	strb	r3, [r7, #15]
  /* Check the parameters */
  assert_param(IS_SPI_ALL_PERIPH_EXT(SPIx));
  assert_param(IS_SPI_I2S_GET_FLAG(SPI_I2S_FLAG));

  /* Check the status of the specified SPI flag */
  if ((SPIx->SR & SPI_I2S_FLAG) != (uint16_t)RESET)
 80006d4:	687b      	ldr	r3, [r7, #4]
 80006d6:	891b      	ldrh	r3, [r3, #8]
 80006d8:	b29a      	uxth	r2, r3
 80006da:	887b      	ldrh	r3, [r7, #2]
 80006dc:	4013      	ands	r3, r2
 80006de:	b29b      	uxth	r3, r3
 80006e0:	2b00      	cmp	r3, #0
 80006e2:	d002      	beq.n	80006ea <SPI_I2S_GetFlagStatus+0x26>
  {
    /* SPI_I2S_FLAG is set */
    bitstatus = SET;
 80006e4:	2301      	movs	r3, #1
 80006e6:	73fb      	strb	r3, [r7, #15]
 80006e8:	e001      	b.n	80006ee <SPI_I2S_GetFlagStatus+0x2a>
  }
  else
  {
    /* SPI_I2S_FLAG is reset */
    bitstatus = RESET;
 80006ea:	2300      	movs	r3, #0
 80006ec:	73fb      	strb	r3, [r7, #15]
  }
  /* Return the SPI_I2S_FLAG status */
  return  bitstatus;
 80006ee:	7bfb      	ldrb	r3, [r7, #15]
}
 80006f0:	4618      	mov	r0, r3
 80006f2:	3714      	adds	r7, #20
 80006f4:	46bd      	mov	sp, r7
 80006f6:	f85d 7b04 	ldr.w	r7, [sp], #4
 80006fa:	4770      	bx	lr

080006fc <USART_SendData>:
  *         following values: USART1 or USART2 or USART3 or UART4 or UART5.
  * @param  Data: the data to transmit.
  * @retval None
  */
void USART_SendData(USART_TypeDef* USARTx, uint16_t Data)
{
 80006fc:	b480      	push	{r7}
 80006fe:	b083      	sub	sp, #12
 8000700:	af00      	add	r7, sp, #0
 8000702:	6078      	str	r0, [r7, #4]
 8000704:	460b      	mov	r3, r1
 8000706:	807b      	strh	r3, [r7, #2]
  /* Check the parameters */
  assert_param(IS_USART_ALL_PERIPH(USARTx));
  assert_param(IS_USART_DATA(Data)); 

  /* Transmit Data */
  USARTx->TDR = (Data & (uint16_t)0x01FF);
 8000708:	887b      	ldrh	r3, [r7, #2]
 800070a:	f3c3 0308 	ubfx	r3, r3, #0, #9
 800070e:	b29a      	uxth	r2, r3
 8000710:	687b      	ldr	r3, [r7, #4]
 8000712:	851a      	strh	r2, [r3, #40]	; 0x28
}
 8000714:	bf00      	nop
 8000716:	370c      	adds	r7, #12
 8000718:	46bd      	mov	sp, r7
 800071a:	f85d 7b04 	ldr.w	r7, [sp], #4
 800071e:	4770      	bx	lr

08000720 <USART_ITConfig>:
  * @param  NewState: new state of the specified USARTx interrupts.
  *         This parameter can be: ENABLE or DISABLE.
  * @retval None
  */
void USART_ITConfig(USART_TypeDef* USARTx, uint32_t USART_IT, FunctionalState NewState)
{
 8000720:	b480      	push	{r7}
 8000722:	b089      	sub	sp, #36	; 0x24
 8000724:	af00      	add	r7, sp, #0
 8000726:	60f8      	str	r0, [r7, #12]
 8000728:	60b9      	str	r1, [r7, #8]
 800072a:	4613      	mov	r3, r2
 800072c:	71fb      	strb	r3, [r7, #7]
  uint32_t usartreg = 0, itpos = 0, itmask = 0;
 800072e:	2300      	movs	r3, #0
 8000730:	61bb      	str	r3, [r7, #24]
 8000732:	2300      	movs	r3, #0
 8000734:	617b      	str	r3, [r7, #20]
 8000736:	2300      	movs	r3, #0
 8000738:	613b      	str	r3, [r7, #16]
  uint32_t usartxbase = 0;
 800073a:	2300      	movs	r3, #0
 800073c:	61fb      	str	r3, [r7, #28]
  /* Check the parameters */
  assert_param(IS_USART_ALL_PERIPH(USARTx));
  assert_param(IS_USART_CONFIG_IT(USART_IT));
  assert_param(IS_FUNCTIONAL_STATE(NewState));
  
  usartxbase = (uint32_t)USARTx;
 800073e:	68fb      	ldr	r3, [r7, #12]
 8000740:	61fb      	str	r3, [r7, #28]

  /* Get the USART register index */
  usartreg = (((uint16_t)USART_IT) >> 0x08);
 8000742:	68bb      	ldr	r3, [r7, #8]
 8000744:	b29b      	uxth	r3, r3
 8000746:	0a1b      	lsrs	r3, r3, #8
 8000748:	b29b      	uxth	r3, r3
 800074a:	61bb      	str	r3, [r7, #24]

  /* Get the interrupt position */
  itpos = USART_IT & IT_MASK;
 800074c:	68bb      	ldr	r3, [r7, #8]
 800074e:	b2db      	uxtb	r3, r3
 8000750:	617b      	str	r3, [r7, #20]
  itmask = (((uint32_t)0x01) << itpos);
 8000752:	2201      	movs	r2, #1
 8000754:	697b      	ldr	r3, [r7, #20]
 8000756:	fa02 f303 	lsl.w	r3, r2, r3
 800075a:	613b      	str	r3, [r7, #16]

  if (usartreg == 0x02) /* The IT is in CR2 register */
 800075c:	69bb      	ldr	r3, [r7, #24]
 800075e:	2b02      	cmp	r3, #2
 8000760:	d103      	bne.n	800076a <USART_ITConfig+0x4a>
  {
    usartxbase += 0x04;
 8000762:	69fb      	ldr	r3, [r7, #28]
 8000764:	3304      	adds	r3, #4
 8000766:	61fb      	str	r3, [r7, #28]
 8000768:	e005      	b.n	8000776 <USART_ITConfig+0x56>
  }
  else if (usartreg == 0x03) /* The IT is in CR3 register */
 800076a:	69bb      	ldr	r3, [r7, #24]
 800076c:	2b03      	cmp	r3, #3
 800076e:	d102      	bne.n	8000776 <USART_ITConfig+0x56>
  {
    usartxbase += 0x08;
 8000770:	69fb      	ldr	r3, [r7, #28]
 8000772:	3308      	adds	r3, #8
 8000774:	61fb      	str	r3, [r7, #28]
  }
  else /* The IT is in CR1 register */
  {
  }
  if (NewState != DISABLE)
 8000776:	79fb      	ldrb	r3, [r7, #7]
 8000778:	2b00      	cmp	r3, #0
 800077a:	d006      	beq.n	800078a <USART_ITConfig+0x6a>
  {
    *(__IO uint32_t*)usartxbase  |= itmask;
 800077c:	69fb      	ldr	r3, [r7, #28]
 800077e:	6819      	ldr	r1, [r3, #0]
 8000780:	69fb      	ldr	r3, [r7, #28]
 8000782:	693a      	ldr	r2, [r7, #16]
 8000784:	430a      	orrs	r2, r1
 8000786:	601a      	str	r2, [r3, #0]
  }
  else
  {
    *(__IO uint32_t*)usartxbase &= ~itmask;
  }
}
 8000788:	e006      	b.n	8000798 <USART_ITConfig+0x78>
    *(__IO uint32_t*)usartxbase &= ~itmask;
 800078a:	69fb      	ldr	r3, [r7, #28]
 800078c:	6819      	ldr	r1, [r3, #0]
 800078e:	693b      	ldr	r3, [r7, #16]
 8000790:	43da      	mvns	r2, r3
 8000792:	69fb      	ldr	r3, [r7, #28]
 8000794:	400a      	ands	r2, r1
 8000796:	601a      	str	r2, [r3, #0]
}
 8000798:	bf00      	nop
 800079a:	3724      	adds	r7, #36	; 0x24
 800079c:	46bd      	mov	sp, r7
 800079e:	f85d 7b04 	ldr.w	r7, [sp], #4
 80007a2:	4770      	bx	lr

080007a4 <USART_GetFlagStatus>:
  *         @arg USART_FLAG_FE:  Framing Error flag.
  *         @arg USART_FLAG_PE:  Parity Error flag.
  * @retval The new state of USART_FLAG (SET or RESET).
  */
FlagStatus USART_GetFlagStatus(USART_TypeDef* USARTx, uint32_t USART_FLAG)
{
 80007a4:	b480      	push	{r7}
 80007a6:	b085      	sub	sp, #20
 80007a8:	af00      	add	r7, sp, #0
 80007aa:	6078      	str	r0, [r7, #4]
 80007ac:	6039      	str	r1, [r7, #0]
  FlagStatus bitstatus = RESET;
 80007ae:	2300      	movs	r3, #0
 80007b0:	73fb      	strb	r3, [r7, #15]
  /* Check the parameters */
  assert_param(IS_USART_ALL_PERIPH(USARTx));
  assert_param(IS_USART_FLAG(USART_FLAG));
  
  if ((USARTx->ISR & USART_FLAG) != (uint16_t)RESET)
 80007b2:	687b      	ldr	r3, [r7, #4]
 80007b4:	69da      	ldr	r2, [r3, #28]
 80007b6:	683b      	ldr	r3, [r7, #0]
 80007b8:	4013      	ands	r3, r2
 80007ba:	2b00      	cmp	r3, #0
 80007bc:	d002      	beq.n	80007c4 <USART_GetFlagStatus+0x20>
  {
    bitstatus = SET;
 80007be:	2301      	movs	r3, #1
 80007c0:	73fb      	strb	r3, [r7, #15]
 80007c2:	e001      	b.n	80007c8 <USART_GetFlagStatus+0x24>
  }
  else
  {
    bitstatus = RESET;
 80007c4:	2300      	movs	r3, #0
 80007c6:	73fb      	strb	r3, [r7, #15]
  }
  return bitstatus;
 80007c8:	7bfb      	ldrb	r3, [r7, #15]
}
 80007ca:	4618      	mov	r0, r3
 80007cc:	3714      	adds	r7, #20
 80007ce:	46bd      	mov	sp, r7
 80007d0:	f85d 7b04 	ldr.w	r7, [sp], #4
 80007d4:	4770      	bx	lr

080007d6 <USART_GetITStatus>:
  *         @arg USART_IT_FE:  Framing Error interrupt.
  *         @arg USART_IT_PE:  Parity Error interrupt.
  * @retval The new state of USART_IT (SET or RESET).
  */
ITStatus USART_GetITStatus(USART_TypeDef* USARTx, uint32_t USART_IT)
{
 80007d6:	b480      	push	{r7}
 80007d8:	b087      	sub	sp, #28
 80007da:	af00      	add	r7, sp, #0
 80007dc:	6078      	str	r0, [r7, #4]
 80007de:	6039      	str	r1, [r7, #0]
  uint32_t bitpos = 0, itmask = 0, usartreg = 0;
 80007e0:	2300      	movs	r3, #0
 80007e2:	60fb      	str	r3, [r7, #12]
 80007e4:	2300      	movs	r3, #0
 80007e6:	617b      	str	r3, [r7, #20]
 80007e8:	2300      	movs	r3, #0
 80007ea:	60bb      	str	r3, [r7, #8]
  ITStatus bitstatus = RESET;
 80007ec:	2300      	movs	r3, #0
 80007ee:	74fb      	strb	r3, [r7, #19]
  /* Check the parameters */
  assert_param(IS_USART_ALL_PERIPH(USARTx));
  assert_param(IS_USART_GET_IT(USART_IT)); 
  
  /* Get the USART register index */
  usartreg = (((uint16_t)USART_IT) >> 0x08);
 80007f0:	683b      	ldr	r3, [r7, #0]
 80007f2:	b29b      	uxth	r3, r3
 80007f4:	0a1b      	lsrs	r3, r3, #8
 80007f6:	b29b      	uxth	r3, r3
 80007f8:	60bb      	str	r3, [r7, #8]
  /* Get the interrupt position */
  itmask = USART_IT & IT_MASK;
 80007fa:	683b      	ldr	r3, [r7, #0]
 80007fc:	b2db      	uxtb	r3, r3
 80007fe:	617b      	str	r3, [r7, #20]
  itmask = (uint32_t)0x01 << itmask;
 8000800:	2201      	movs	r2, #1
 8000802:	697b      	ldr	r3, [r7, #20]
 8000804:	fa02 f303 	lsl.w	r3, r2, r3
 8000808:	617b      	str	r3, [r7, #20]
  
  if (usartreg == 0x01) /* The IT  is in CR1 register */
 800080a:	68bb      	ldr	r3, [r7, #8]
 800080c:	2b01      	cmp	r3, #1
 800080e:	d105      	bne.n	800081c <USART_GetITStatus+0x46>
  {
    itmask &= USARTx->CR1;
 8000810:	687b      	ldr	r3, [r7, #4]
 8000812:	681b      	ldr	r3, [r3, #0]
 8000814:	697a      	ldr	r2, [r7, #20]
 8000816:	4013      	ands	r3, r2
 8000818:	617b      	str	r3, [r7, #20]
 800081a:	e00d      	b.n	8000838 <USART_GetITStatus+0x62>
  }
  else if (usartreg == 0x02) /* The IT  is in CR2 register */
 800081c:	68bb      	ldr	r3, [r7, #8]
 800081e:	2b02      	cmp	r3, #2
 8000820:	d105      	bne.n	800082e <USART_GetITStatus+0x58>
  {
    itmask &= USARTx->CR2;
 8000822:	687b      	ldr	r3, [r7, #4]
 8000824:	685b      	ldr	r3, [r3, #4]
 8000826:	697a      	ldr	r2, [r7, #20]
 8000828:	4013      	ands	r3, r2
 800082a:	617b      	str	r3, [r7, #20]
 800082c:	e004      	b.n	8000838 <USART_GetITStatus+0x62>
  }
  else /* The IT  is in CR3 register */
  {
    itmask &= USARTx->CR3;
 800082e:	687b      	ldr	r3, [r7, #4]
 8000830:	689b      	ldr	r3, [r3, #8]
 8000832:	697a      	ldr	r2, [r7, #20]
 8000834:	4013      	ands	r3, r2
 8000836:	617b      	str	r3, [r7, #20]
  }
  
  bitpos = USART_IT >> 0x10;
 8000838:	683b      	ldr	r3, [r7, #0]
 800083a:	0c1b      	lsrs	r3, r3, #16
 800083c:	60fb      	str	r3, [r7, #12]
  bitpos = (uint32_t)0x01 << bitpos;
 800083e:	2201      	movs	r2, #1
 8000840:	68fb      	ldr	r3, [r7, #12]
 8000842:	fa02 f303 	lsl.w	r3, r2, r3
 8000846:	60fb      	str	r3, [r7, #12]
  bitpos &= USARTx->ISR;
 8000848:	687b      	ldr	r3, [r7, #4]
 800084a:	69db      	ldr	r3, [r3, #28]
 800084c:	68fa      	ldr	r2, [r7, #12]
 800084e:	4013      	ands	r3, r2
 8000850:	60fb      	str	r3, [r7, #12]
  if ((itmask != (uint16_t)RESET)&&(bitpos != (uint16_t)RESET))
 8000852:	697b      	ldr	r3, [r7, #20]
 8000854:	2b00      	cmp	r3, #0
 8000856:	d005      	beq.n	8000864 <USART_GetITStatus+0x8e>
 8000858:	68fb      	ldr	r3, [r7, #12]
 800085a:	2b00      	cmp	r3, #0
 800085c:	d002      	beq.n	8000864 <USART_GetITStatus+0x8e>
  {
    bitstatus = SET;
 800085e:	2301      	movs	r3, #1
 8000860:	74fb      	strb	r3, [r7, #19]
 8000862:	e001      	b.n	8000868 <USART_GetITStatus+0x92>
  }
  else
  {
    bitstatus = RESET;
 8000864:	2300      	movs	r3, #0
 8000866:	74fb      	strb	r3, [r7, #19]
  }
  
  return bitstatus;  
 8000868:	7cfb      	ldrb	r3, [r7, #19]
}
 800086a:	4618      	mov	r0, r3
 800086c:	371c      	adds	r7, #28
 800086e:	46bd      	mov	sp, r7
 8000870:	f85d 7b04 	ldr.w	r7, [sp], #4
 8000874:	4770      	bx	lr
	...

08000878 <NVIC_EnableIRQ>:
    The interrupt number cannot be a negative value.

    \param [in]      IRQn  Number of the external interrupt to enable
 */
static __INLINE void NVIC_EnableIRQ(IRQn_Type IRQn)
{
 8000878:	b480      	push	{r7}
 800087a:	b083      	sub	sp, #12
 800087c:	af00      	add	r7, sp, #0
 800087e:	4603      	mov	r3, r0
 8000880:	71fb      	strb	r3, [r7, #7]
/*  NVIC->ISER[((uint32_t)(IRQn) >> 5)] = (1 << ((uint32_t)(IRQn) & 0x1F));  enable interrupt */
  NVIC->ISER[(uint32_t)((int32_t)IRQn) >> 5] = (uint32_t)(1 << ((uint32_t)((int32_t)IRQn) & (uint32_t)0x1F)); /* enable interrupt */
 8000882:	79fb      	ldrb	r3, [r7, #7]
 8000884:	f003 031f 	and.w	r3, r3, #31
 8000888:	2201      	movs	r2, #1
 800088a:	fa02 f103 	lsl.w	r1, r2, r3
 800088e:	4a06      	ldr	r2, [pc, #24]	; (80008a8 <NVIC_EnableIRQ+0x30>)
 8000890:	f997 3007 	ldrsb.w	r3, [r7, #7]
 8000894:	095b      	lsrs	r3, r3, #5
 8000896:	f842 1023 	str.w	r1, [r2, r3, lsl #2]
}
 800089a:	bf00      	nop
 800089c:	370c      	adds	r7, #12
 800089e:	46bd      	mov	sp, r7
 80008a0:	f85d 7b04 	ldr.w	r7, [sp], #4
 80008a4:	4770      	bx	lr
 80008a6:	bf00      	nop
 80008a8:	e000e100 	.word	0xe000e100

080008ac <uart_put_char>:
        UART_COUNT--;
    }
    return val;
}

void uart_put_char(uint8_t c) {
 80008ac:	b580      	push	{r7, lr}
 80008ae:	b082      	sub	sp, #8
 80008b0:	af00      	add	r7, sp, #0
 80008b2:	4603      	mov	r3, r0
 80008b4:	71fb      	strb	r3, [r7, #7]
    USART_SendData(USART2, (uint8_t)c);
 80008b6:	79fb      	ldrb	r3, [r7, #7]
 80008b8:	b29b      	uxth	r3, r3
 80008ba:	4619      	mov	r1, r3
 80008bc:	4807      	ldr	r0, [pc, #28]	; (80008dc <uart_put_char+0x30>)
 80008be:	f7ff ff1d 	bl	80006fc <USART_SendData>
    while(USART_GetFlagStatus(USART2, USART_FLAG_TXE)  == RESET){}
 80008c2:	bf00      	nop
 80008c4:	2180      	movs	r1, #128	; 0x80
 80008c6:	4805      	ldr	r0, [pc, #20]	; (80008dc <uart_put_char+0x30>)
 80008c8:	f7ff ff6c 	bl	80007a4 <USART_GetFlagStatus>
 80008cc:	4603      	mov	r3, r0
 80008ce:	2b00      	cmp	r3, #0
 80008d0:	d0f8      	beq.n	80008c4 <uart_put_char+0x18>
}
 80008d2:	bf00      	nop
 80008d4:	bf00      	nop
 80008d6:	3708      	adds	r7, #8
 80008d8:	46bd      	mov	sp, r7
 80008da:	bd80      	pop	{r7, pc}
 80008dc:	40004400 	.word	0x40004400

080008e0 <_write_r>:

int _write_r(struct _reent *r, int file, char *ptr, int len) {
 80008e0:	b580      	push	{r7, lr}
 80008e2:	b086      	sub	sp, #24
 80008e4:	af00      	add	r7, sp, #0
 80008e6:	60f8      	str	r0, [r7, #12]
 80008e8:	60b9      	str	r1, [r7, #8]
 80008ea:	607a      	str	r2, [r7, #4]
 80008ec:	603b      	str	r3, [r7, #0]
    int n;

    for (n = 0; n < len; n++) {
 80008ee:	2300      	movs	r3, #0
 80008f0:	617b      	str	r3, [r7, #20]
 80008f2:	e012      	b.n	800091a <_write_r+0x3a>
        if (ptr[n] == '\n') {
 80008f4:	697b      	ldr	r3, [r7, #20]
 80008f6:	687a      	ldr	r2, [r7, #4]
 80008f8:	4413      	add	r3, r2
 80008fa:	781b      	ldrb	r3, [r3, #0]
 80008fc:	2b0a      	cmp	r3, #10
 80008fe:	d102      	bne.n	8000906 <_write_r+0x26>
            uart_put_char('\r');
 8000900:	200d      	movs	r0, #13
 8000902:	f7ff ffd3 	bl	80008ac <uart_put_char>
        }
        uart_put_char(ptr[n] & (uint16_t)0x01FF);
 8000906:	697b      	ldr	r3, [r7, #20]
 8000908:	687a      	ldr	r2, [r7, #4]
 800090a:	4413      	add	r3, r2
 800090c:	781b      	ldrb	r3, [r3, #0]
 800090e:	4618      	mov	r0, r3
 8000910:	f7ff ffcc 	bl	80008ac <uart_put_char>
    for (n = 0; n < len; n++) {
 8000914:	697b      	ldr	r3, [r7, #20]
 8000916:	3301      	adds	r3, #1
 8000918:	617b      	str	r3, [r7, #20]
 800091a:	697a      	ldr	r2, [r7, #20]
 800091c:	683b      	ldr	r3, [r7, #0]
 800091e:	429a      	cmp	r2, r3
 8000920:	dbe8      	blt.n	80008f4 <_write_r+0x14>
    }

    return len;
 8000922:	683b      	ldr	r3, [r7, #0]
}
 8000924:	4618      	mov	r0, r3
 8000926:	3718      	adds	r7, #24
 8000928:	46bd      	mov	sp, r7
 800092a:	bd80      	pop	{r7, pc}

0800092c <USART2_IRQHandler>:

void USART2_IRQHandler(void)
{
 800092c:	b580      	push	{r7, lr}
 800092e:	af00      	add	r7, sp, #0
    if(USART_GetITStatus(USART2, USART_IT_RXNE) != RESET)
 8000930:	4915      	ldr	r1, [pc, #84]	; (8000988 <USART2_IRQHandler+0x5c>)
 8000932:	4816      	ldr	r0, [pc, #88]	; (800098c <USART2_IRQHandler+0x60>)
 8000934:	f7ff ff4f 	bl	80007d6 <USART_GetITStatus>
 8000938:	4603      	mov	r3, r0
 800093a:	2b00      	cmp	r3, #0
 800093c:	d021      	beq.n	8000982 <USART2_IRQHandler+0x56>
    {
        UART_BUFFER[UART_END_IDX++] = (uint8_t)(USART2->RDR & 0xFF);
 800093e:	4b13      	ldr	r3, [pc, #76]	; (800098c <USART2_IRQHandler+0x60>)
 8000940:	8c9b      	ldrh	r3, [r3, #36]	; 0x24
 8000942:	b299      	uxth	r1, r3
 8000944:	4b12      	ldr	r3, [pc, #72]	; (8000990 <USART2_IRQHandler+0x64>)
 8000946:	781b      	ldrb	r3, [r3, #0]
 8000948:	b2db      	uxtb	r3, r3
 800094a:	1c5a      	adds	r2, r3, #1
 800094c:	b2d0      	uxtb	r0, r2
 800094e:	4a10      	ldr	r2, [pc, #64]	; (8000990 <USART2_IRQHandler+0x64>)
 8000950:	7010      	strb	r0, [r2, #0]
 8000952:	461a      	mov	r2, r3
 8000954:	b2c9      	uxtb	r1, r1
 8000956:	4b0f      	ldr	r3, [pc, #60]	; (8000994 <USART2_IRQHandler+0x68>)
 8000958:	5499      	strb	r1, [r3, r2]
        if (UART_COUNT == UART_BUFFER_LENGTH-1){
 800095a:	4b0f      	ldr	r3, [pc, #60]	; (8000998 <USART2_IRQHandler+0x6c>)
 800095c:	781b      	ldrb	r3, [r3, #0]
 800095e:	b2db      	uxtb	r3, r3
 8000960:	2bff      	cmp	r3, #255	; 0xff
 8000962:	d107      	bne.n	8000974 <USART2_IRQHandler+0x48>
            UART_START_IDX++;
 8000964:	4b0d      	ldr	r3, [pc, #52]	; (800099c <USART2_IRQHandler+0x70>)
 8000966:	781b      	ldrb	r3, [r3, #0]
 8000968:	b2db      	uxtb	r3, r3
 800096a:	3301      	adds	r3, #1
 800096c:	b2da      	uxtb	r2, r3
 800096e:	4b0b      	ldr	r3, [pc, #44]	; (800099c <USART2_IRQHandler+0x70>)
 8000970:	701a      	strb	r2, [r3, #0]
        } else {
            UART_COUNT++;
        }
    }
}
 8000972:	e006      	b.n	8000982 <USART2_IRQHandler+0x56>
            UART_COUNT++;
 8000974:	4b08      	ldr	r3, [pc, #32]	; (8000998 <USART2_IRQHandler+0x6c>)
 8000976:	781b      	ldrb	r3, [r3, #0]
 8000978:	b2db      	uxtb	r3, r3
 800097a:	3301      	adds	r3, #1
 800097c:	b2da      	uxtb	r2, r3
 800097e:	4b06      	ldr	r3, [pc, #24]	; (8000998 <USART2_IRQHandler+0x6c>)
 8000980:	701a      	strb	r2, [r3, #0]
}
 8000982:	bf00      	nop
 8000984:	bd80      	pop	{r7, pc}
 8000986:	bf00      	nop
 8000988:	00050105 	.word	0x00050105
 800098c:	40004400 	.word	0x40004400
 8000990:	200001dc 	.word	0x200001dc
 8000994:	200000dc 	.word	0x200000dc
 8000998:	200001de 	.word	0x200001de
 800099c:	200001dd 	.word	0x200001dd

080009a0 <uart_init>:

uint8_t uart_get_count(){
    return UART_COUNT;
}

void uart_init(uint32_t baud) {
 80009a0:	b580      	push	{r7, lr}
 80009a2:	b094      	sub	sp, #80	; 0x50
 80009a4:	af00      	add	r7, sp, #0
 80009a6:	6078      	str	r0, [r7, #4]
    setbuf(stdout, NULL); // Set stdout to disable line buffering
 80009a8:	4b86      	ldr	r3, [pc, #536]	; (8000bc4 <uart_init+0x224>)
 80009aa:	681b      	ldr	r3, [r3, #0]
 80009ac:	689b      	ldr	r3, [r3, #8]
 80009ae:	2100      	movs	r1, #0
 80009b0:	4618      	mov	r0, r3
 80009b2:	f002 ff39 	bl	8003828 <setbuf>
    setbuf(stdin,  NULL); // Set stdin  to disable line buffering
 80009b6:	4b83      	ldr	r3, [pc, #524]	; (8000bc4 <uart_init+0x224>)
 80009b8:	681b      	ldr	r3, [r3, #0]
 80009ba:	685b      	ldr	r3, [r3, #4]
 80009bc:	2100      	movs	r1, #0
 80009be:	4618      	mov	r0, r3
 80009c0:	f002 ff32 	bl	8003828 <setbuf>

    // Enable Clocks
    RCC->AHBENR  |= RCC_AHBPeriph_GPIOA;    // Enable Clock for GPIO Bank A
 80009c4:	4b80      	ldr	r3, [pc, #512]	; (8000bc8 <uart_init+0x228>)
 80009c6:	695b      	ldr	r3, [r3, #20]
 80009c8:	4a7f      	ldr	r2, [pc, #508]	; (8000bc8 <uart_init+0x228>)
 80009ca:	f443 3300 	orr.w	r3, r3, #131072	; 0x20000
 80009ce:	6153      	str	r3, [r2, #20]
    RCC->APB1ENR |= RCC_APB1Periph_USART2;  // Enable Clock for USART2
 80009d0:	4b7d      	ldr	r3, [pc, #500]	; (8000bc8 <uart_init+0x228>)
 80009d2:	69db      	ldr	r3, [r3, #28]
 80009d4:	4a7c      	ldr	r2, [pc, #496]	; (8000bc8 <uart_init+0x228>)
 80009d6:	f443 3300 	orr.w	r3, r3, #131072	; 0x20000
 80009da:	61d3      	str	r3, [r2, #28]

    // Connect pins to USART2
    GPIOA->AFR[2 >> 0x03] &= ~(0x0000000F << ((2 & 0x00000007) * 4)); // Clear alternate function for PA2
 80009dc:	f04f 4390 	mov.w	r3, #1207959552	; 0x48000000
 80009e0:	6a1b      	ldr	r3, [r3, #32]
 80009e2:	f04f 4290 	mov.w	r2, #1207959552	; 0x48000000
 80009e6:	f423 6370 	bic.w	r3, r3, #3840	; 0xf00
 80009ea:	6213      	str	r3, [r2, #32]
    GPIOA->AFR[2 >> 0x03] |=  (0x00000007 << ((2 & 0x00000007) * 4)); // Set alternate 7 function for PA2
 80009ec:	f04f 4390 	mov.w	r3, #1207959552	; 0x48000000
 80009f0:	6a1b      	ldr	r3, [r3, #32]
 80009f2:	f04f 4290 	mov.w	r2, #1207959552	; 0x48000000
 80009f6:	f443 63e0 	orr.w	r3, r3, #1792	; 0x700
 80009fa:	6213      	str	r3, [r2, #32]
    GPIOA->AFR[3 >> 0x03] &= ~(0x0000000F << ((3 & 0x00000007) * 4)); // Clear alternate function for PA3
 80009fc:	f04f 4390 	mov.w	r3, #1207959552	; 0x48000000
 8000a00:	6a1b      	ldr	r3, [r3, #32]
 8000a02:	f04f 4290 	mov.w	r2, #1207959552	; 0x48000000
 8000a06:	f423 4370 	bic.w	r3, r3, #61440	; 0xf000
 8000a0a:	6213      	str	r3, [r2, #32]
    GPIOA->AFR[3 >> 0x03] |=  (0x00000007 << ((3 & 0x00000007) * 4)); // Set alternate 7 function for PA3
 8000a0c:	f04f 4390 	mov.w	r3, #1207959552	; 0x48000000
 8000a10:	6a1b      	ldr	r3, [r3, #32]
 8000a12:	f04f 4290 	mov.w	r2, #1207959552	; 0x48000000
 8000a16:	f443 43e0 	orr.w	r3, r3, #28672	; 0x7000
 8000a1a:	6213      	str	r3, [r2, #32]

    // Configure pins PA2 and PA3 for 10 MHz alternate function
    GPIOA->OSPEEDR &= ~(0x00000003 << (2 * 2) | 0x00000003 << (3 * 2));    // Clear speed register
 8000a1c:	f04f 4390 	mov.w	r3, #1207959552	; 0x48000000
 8000a20:	689b      	ldr	r3, [r3, #8]
 8000a22:	f04f 4290 	mov.w	r2, #1207959552	; 0x48000000
 8000a26:	f023 03f0 	bic.w	r3, r3, #240	; 0xf0
 8000a2a:	6093      	str	r3, [r2, #8]
    GPIOA->OSPEEDR |=  (0x00000001 << (2 * 2) | 0x00000001 << (3 * 2));    // set speed register (0x01 - 10 MHz, 0x02 - 2 MHz, 0x03 - 50 MHz)
 8000a2c:	f04f 4390 	mov.w	r3, #1207959552	; 0x48000000
 8000a30:	689b      	ldr	r3, [r3, #8]
 8000a32:	f04f 4290 	mov.w	r2, #1207959552	; 0x48000000
 8000a36:	f043 0350 	orr.w	r3, r3, #80	; 0x50
 8000a3a:	6093      	str	r3, [r2, #8]
    GPIOA->OTYPER  &= ~(0x0001     << (2)     | 0x0001     << (3));        // Clear output type register
 8000a3c:	f04f 4390 	mov.w	r3, #1207959552	; 0x48000000
 8000a40:	889b      	ldrh	r3, [r3, #4]
 8000a42:	b29b      	uxth	r3, r3
 8000a44:	f04f 4290 	mov.w	r2, #1207959552	; 0x48000000
 8000a48:	f023 030c 	bic.w	r3, r3, #12
 8000a4c:	b29b      	uxth	r3, r3
 8000a4e:	8093      	strh	r3, [r2, #4]
    GPIOA->OTYPER  |=  (0x0000     << (2)     | 0x0000     << (3));        // Set output type register (0x00 - Push pull, 0x01 - Open drain)
 8000a50:	f04f 4290 	mov.w	r2, #1207959552	; 0x48000000
 8000a54:	f04f 4390 	mov.w	r3, #1207959552	; 0x48000000
 8000a58:	8892      	ldrh	r2, [r2, #4]
 8000a5a:	b292      	uxth	r2, r2
 8000a5c:	809a      	strh	r2, [r3, #4]
    GPIOA->MODER   &= ~(0x00000003 << (2 * 2) | 0x00000003 << (3 * 2));    // Clear mode register
 8000a5e:	f04f 4390 	mov.w	r3, #1207959552	; 0x48000000
 8000a62:	681b      	ldr	r3, [r3, #0]
 8000a64:	f04f 4290 	mov.w	r2, #1207959552	; 0x48000000
 8000a68:	f023 03f0 	bic.w	r3, r3, #240	; 0xf0
 8000a6c:	6013      	str	r3, [r2, #0]
    GPIOA->MODER   |=  (0x00000002 << (2 * 2) | 0x00000002 << (3 * 2));    // Set mode register (0x00 - Input, 0x01 - Output, 0x02 - Alternate Function, 0x03 - Analog in/out)
 8000a6e:	f04f 4390 	mov.w	r3, #1207959552	; 0x48000000
 8000a72:	681b      	ldr	r3, [r3, #0]
 8000a74:	f04f 4290 	mov.w	r2, #1207959552	; 0x48000000
 8000a78:	f043 03a0 	orr.w	r3, r3, #160	; 0xa0
 8000a7c:	6013      	str	r3, [r2, #0]
    GPIOA->PUPDR   &= ~(0x00000003 << (2 * 2) | 0x00000003 << (3 * 2));    // Clear push/pull register
 8000a7e:	f04f 4390 	mov.w	r3, #1207959552	; 0x48000000
 8000a82:	68db      	ldr	r3, [r3, #12]
 8000a84:	f04f 4290 	mov.w	r2, #1207959552	; 0x48000000
 8000a88:	f023 03f0 	bic.w	r3, r3, #240	; 0xf0
 8000a8c:	60d3      	str	r3, [r2, #12]
    GPIOA->PUPDR   |=  (0x00000001 << (2 * 2) | 0x00000001 << (3 * 2));    // Set push/pull register (0x00 - No pull, 0x01 - Pull-up, 0x02 - Pull-down)
 8000a8e:	f04f 4390 	mov.w	r3, #1207959552	; 0x48000000
 8000a92:	68db      	ldr	r3, [r3, #12]
 8000a94:	f04f 4290 	mov.w	r2, #1207959552	; 0x48000000
 8000a98:	f043 0350 	orr.w	r3, r3, #80	; 0x50
 8000a9c:	60d3      	str	r3, [r2, #12]

    //Configure USART2
    USART2->CR1 &= ~0x00000001; // Disable USART2
 8000a9e:	4b4b      	ldr	r3, [pc, #300]	; (8000bcc <uart_init+0x22c>)
 8000aa0:	681b      	ldr	r3, [r3, #0]
 8000aa2:	4a4a      	ldr	r2, [pc, #296]	; (8000bcc <uart_init+0x22c>)
 8000aa4:	f023 0301 	bic.w	r3, r3, #1
 8000aa8:	6013      	str	r3, [r2, #0]
    USART2->CR2 &= ~0x00003000; // Clear CR2 Configuration
 8000aaa:	4b48      	ldr	r3, [pc, #288]	; (8000bcc <uart_init+0x22c>)
 8000aac:	685b      	ldr	r3, [r3, #4]
 8000aae:	4a47      	ldr	r2, [pc, #284]	; (8000bcc <uart_init+0x22c>)
 8000ab0:	f423 5340 	bic.w	r3, r3, #12288	; 0x3000
 8000ab4:	6053      	str	r3, [r2, #4]
    USART2->CR2 |=  0x00000000; // Set 1 stop bits
 8000ab6:	4b45      	ldr	r3, [pc, #276]	; (8000bcc <uart_init+0x22c>)
 8000ab8:	4a44      	ldr	r2, [pc, #272]	; (8000bcc <uart_init+0x22c>)
 8000aba:	685b      	ldr	r3, [r3, #4]
 8000abc:	6053      	str	r3, [r2, #4]
    USART2->CR1 &= ~(0x00001000 | 0x00000400 | 0x00000200 | 0x00000008 | 0x00000004); // Clear CR1 Configuration
 8000abe:	4b43      	ldr	r3, [pc, #268]	; (8000bcc <uart_init+0x22c>)
 8000ac0:	681b      	ldr	r3, [r3, #0]
 8000ac2:	4a42      	ldr	r2, [pc, #264]	; (8000bcc <uart_init+0x22c>)
 8000ac4:	f423 53b0 	bic.w	r3, r3, #5632	; 0x1600
 8000ac8:	f023 030c 	bic.w	r3, r3, #12
 8000acc:	6013      	str	r3, [r2, #0]
    USART2->CR1 |=  0x00000000; // Set word length to 8 bits
 8000ace:	4b3f      	ldr	r3, [pc, #252]	; (8000bcc <uart_init+0x22c>)
 8000ad0:	4a3e      	ldr	r2, [pc, #248]	; (8000bcc <uart_init+0x22c>)
 8000ad2:	681b      	ldr	r3, [r3, #0]
 8000ad4:	6013      	str	r3, [r2, #0]
    USART2->CR1 |=  0x00000000; // Set parity bits to none
 8000ad6:	4b3d      	ldr	r3, [pc, #244]	; (8000bcc <uart_init+0x22c>)
 8000ad8:	4a3c      	ldr	r2, [pc, #240]	; (8000bcc <uart_init+0x22c>)
 8000ada:	681b      	ldr	r3, [r3, #0]
 8000adc:	6013      	str	r3, [r2, #0]
    USART2->CR1 |=  0x00000004 | 0x00000008; // Set mode to RX and TX
 8000ade:	4b3b      	ldr	r3, [pc, #236]	; (8000bcc <uart_init+0x22c>)
 8000ae0:	681b      	ldr	r3, [r3, #0]
 8000ae2:	4a3a      	ldr	r2, [pc, #232]	; (8000bcc <uart_init+0x22c>)
 8000ae4:	f043 030c 	orr.w	r3, r3, #12
 8000ae8:	6013      	str	r3, [r2, #0]
    USART2->CR3 &= ~(0x00000100 | 0x00000200); // Clear CR3 Configuration
 8000aea:	4b38      	ldr	r3, [pc, #224]	; (8000bcc <uart_init+0x22c>)
 8000aec:	689b      	ldr	r3, [r3, #8]
 8000aee:	4a37      	ldr	r2, [pc, #220]	; (8000bcc <uart_init+0x22c>)
 8000af0:	f423 7340 	bic.w	r3, r3, #768	; 0x300
 8000af4:	6093      	str	r3, [r2, #8]
    USART2->CR3 |=  0x00000000; // Set hardware flow control to none
 8000af6:	4b35      	ldr	r3, [pc, #212]	; (8000bcc <uart_init+0x22c>)
 8000af8:	4a34      	ldr	r2, [pc, #208]	; (8000bcc <uart_init+0x22c>)
 8000afa:	689b      	ldr	r3, [r3, #8]
 8000afc:	6093      	str	r3, [r2, #8]

    uint32_t divider = 0, apbclock = 0, tmpreg = 0;
 8000afe:	2300      	movs	r3, #0
 8000b00:	64fb      	str	r3, [r7, #76]	; 0x4c
 8000b02:	2300      	movs	r3, #0
 8000b04:	647b      	str	r3, [r7, #68]	; 0x44
 8000b06:	2300      	movs	r3, #0
 8000b08:	64bb      	str	r3, [r7, #72]	; 0x48
    RCC_ClocksTypeDef RCC_ClocksStatus;
    RCC_GetClocksFreq(&RCC_ClocksStatus); // Get USART2 Clock frequency
 8000b0a:	f107 0308 	add.w	r3, r7, #8
 8000b0e:	4618      	mov	r0, r3
 8000b10:	f7ff fbae 	bl	8000270 <RCC_GetClocksFreq>
    apbclock = RCC_ClocksStatus.USART2CLK_Frequency;
 8000b14:	6b7b      	ldr	r3, [r7, #52]	; 0x34
 8000b16:	647b      	str	r3, [r7, #68]	; 0x44

    if ((USART2->CR1 & 0x00008000) != 0) {
 8000b18:	4b2c      	ldr	r3, [pc, #176]	; (8000bcc <uart_init+0x22c>)
 8000b1a:	681b      	ldr	r3, [r3, #0]
 8000b1c:	f403 4300 	and.w	r3, r3, #32768	; 0x8000
 8000b20:	2b00      	cmp	r3, #0
 8000b22:	d010      	beq.n	8000b46 <uart_init+0x1a6>
      // (divider * 10) computing in case Oversampling mode is 8 Samples
      divider = (2 * apbclock) / baud;
 8000b24:	6c7b      	ldr	r3, [r7, #68]	; 0x44
 8000b26:	005a      	lsls	r2, r3, #1
 8000b28:	687b      	ldr	r3, [r7, #4]
 8000b2a:	fbb2 f3f3 	udiv	r3, r2, r3
 8000b2e:	64fb      	str	r3, [r7, #76]	; 0x4c
      tmpreg  = (2 * apbclock) % baud;
 8000b30:	6c7b      	ldr	r3, [r7, #68]	; 0x44
 8000b32:	005b      	lsls	r3, r3, #1
 8000b34:	687a      	ldr	r2, [r7, #4]
 8000b36:	fbb3 f2f2 	udiv	r2, r3, r2
 8000b3a:	6879      	ldr	r1, [r7, #4]
 8000b3c:	fb01 f202 	mul.w	r2, r1, r2
 8000b40:	1a9b      	subs	r3, r3, r2
 8000b42:	64bb      	str	r3, [r7, #72]	; 0x48
 8000b44:	e00d      	b.n	8000b62 <uart_init+0x1c2>
    } else {
      // (divider * 10) computing in case Oversampling mode is 16 Samples
      divider = apbclock / baud;
 8000b46:	6c7a      	ldr	r2, [r7, #68]	; 0x44
 8000b48:	687b      	ldr	r3, [r7, #4]
 8000b4a:	fbb2 f3f3 	udiv	r3, r2, r3
 8000b4e:	64fb      	str	r3, [r7, #76]	; 0x4c
      tmpreg  = apbclock % baud;
 8000b50:	6c7b      	ldr	r3, [r7, #68]	; 0x44
 8000b52:	687a      	ldr	r2, [r7, #4]
 8000b54:	fbb3 f2f2 	udiv	r2, r3, r2
 8000b58:	6879      	ldr	r1, [r7, #4]
 8000b5a:	fb01 f202 	mul.w	r2, r1, r2
 8000b5e:	1a9b      	subs	r3, r3, r2
 8000b60:	64bb      	str	r3, [r7, #72]	; 0x48
    }

    if (tmpreg >=  baud / 2) {
 8000b62:	687b      	ldr	r3, [r7, #4]
 8000b64:	085b      	lsrs	r3, r3, #1
 8000b66:	6cba      	ldr	r2, [r7, #72]	; 0x48
 8000b68:	429a      	cmp	r2, r3
 8000b6a:	d302      	bcc.n	8000b72 <uart_init+0x1d2>
        divider++;
 8000b6c:	6cfb      	ldr	r3, [r7, #76]	; 0x4c
 8000b6e:	3301      	adds	r3, #1
 8000b70:	64fb      	str	r3, [r7, #76]	; 0x4c
    }

    if ((USART2->CR1 & 0x00008000) != 0) {
 8000b72:	4b16      	ldr	r3, [pc, #88]	; (8000bcc <uart_init+0x22c>)
 8000b74:	681b      	ldr	r3, [r3, #0]
 8000b76:	f403 4300 	and.w	r3, r3, #32768	; 0x8000
 8000b7a:	2b00      	cmp	r3, #0
 8000b7c:	d00b      	beq.n	8000b96 <uart_init+0x1f6>
        // get the LSB of divider and shift it to the right by 1 bit
        tmpreg = (divider & (uint16_t)0x000F) >> 1;
 8000b7e:	6cfb      	ldr	r3, [r7, #76]	; 0x4c
 8000b80:	085b      	lsrs	r3, r3, #1
 8000b82:	f003 0307 	and.w	r3, r3, #7
 8000b86:	64bb      	str	r3, [r7, #72]	; 0x48
        // update the divider value
        divider = (divider & (uint16_t)0xFFF0) | tmpreg;
 8000b88:	6cfa      	ldr	r2, [r7, #76]	; 0x4c
 8000b8a:	f64f 73f0 	movw	r3, #65520	; 0xfff0
 8000b8e:	4013      	ands	r3, r2
 8000b90:	6cba      	ldr	r2, [r7, #72]	; 0x48
 8000b92:	4313      	orrs	r3, r2
 8000b94:	64fb      	str	r3, [r7, #76]	; 0x4c
    }

    USART2->BRR = (uint16_t)divider; // Configure baud rate
 8000b96:	4b0d      	ldr	r3, [pc, #52]	; (8000bcc <uart_init+0x22c>)
 8000b98:	6cfa      	ldr	r2, [r7, #76]	; 0x4c
 8000b9a:	b292      	uxth	r2, r2
 8000b9c:	819a      	strh	r2, [r3, #12]
    USART2->CR1 |= 0x00000001; // Enable USART2
 8000b9e:	4b0b      	ldr	r3, [pc, #44]	; (8000bcc <uart_init+0x22c>)
 8000ba0:	681b      	ldr	r3, [r3, #0]
 8000ba2:	4a0a      	ldr	r2, [pc, #40]	; (8000bcc <uart_init+0x22c>)
 8000ba4:	f043 0301 	orr.w	r3, r3, #1
 8000ba8:	6013      	str	r3, [r2, #0]

    USART_ITConfig(USART2, USART_IT_RXNE, ENABLE);
 8000baa:	2201      	movs	r2, #1
 8000bac:	4908      	ldr	r1, [pc, #32]	; (8000bd0 <uart_init+0x230>)
 8000bae:	4807      	ldr	r0, [pc, #28]	; (8000bcc <uart_init+0x22c>)
 8000bb0:	f7ff fdb6 	bl	8000720 <USART_ITConfig>
    NVIC_EnableIRQ(USART2_IRQn);
 8000bb4:	2026      	movs	r0, #38	; 0x26
 8000bb6:	f7ff fe5f 	bl	8000878 <NVIC_EnableIRQ>
}
 8000bba:	bf00      	nop
 8000bbc:	3750      	adds	r7, #80	; 0x50
 8000bbe:	46bd      	mov	sp, r7
 8000bc0:	bd80      	pop	{r7, pc}
 8000bc2:	bf00      	nop
 8000bc4:	2000005c 	.word	0x2000005c
 8000bc8:	40021000 	.word	0x40021000
 8000bcc:	40004400 	.word	0x40004400
 8000bd0:	00050105 	.word	0x00050105

08000bd4 <lcd_transmit_byte>:

/*****************************/
/*** LCD Control Functions ***/
/*****************************/
void lcd_transmit_byte(uint8_t data) {
 8000bd4:	b580      	push	{r7, lr}
 8000bd6:	b082      	sub	sp, #8
 8000bd8:	af00      	add	r7, sp, #0
 8000bda:	4603      	mov	r3, r0
 8000bdc:	71fb      	strb	r3, [r7, #7]
    GPIOB->ODR &= ~(0x0001 << 6); // CS = 0 - Start Transmission
 8000bde:	4b14      	ldr	r3, [pc, #80]	; (8000c30 <lcd_transmit_byte+0x5c>)
 8000be0:	8a9b      	ldrh	r3, [r3, #20]
 8000be2:	b29b      	uxth	r3, r3
 8000be4:	4a12      	ldr	r2, [pc, #72]	; (8000c30 <lcd_transmit_byte+0x5c>)
 8000be6:	f023 0340 	bic.w	r3, r3, #64	; 0x40
 8000bea:	b29b      	uxth	r3, r3
 8000bec:	8293      	strh	r3, [r2, #20]
    while(SPI_I2S_GetFlagStatus(SPI2, SPI_I2S_FLAG_TXE) != SET) { }
 8000bee:	bf00      	nop
 8000bf0:	2102      	movs	r1, #2
 8000bf2:	4810      	ldr	r0, [pc, #64]	; (8000c34 <lcd_transmit_byte+0x60>)
 8000bf4:	f7ff fd66 	bl	80006c4 <SPI_I2S_GetFlagStatus>
 8000bf8:	4603      	mov	r3, r0
 8000bfa:	2b01      	cmp	r3, #1
 8000bfc:	d1f8      	bne.n	8000bf0 <lcd_transmit_byte+0x1c>
    SPI_SendData8(SPI2, data);
 8000bfe:	79fb      	ldrb	r3, [r7, #7]
 8000c00:	4619      	mov	r1, r3
 8000c02:	480c      	ldr	r0, [pc, #48]	; (8000c34 <lcd_transmit_byte+0x60>)
 8000c04:	f7ff fd48 	bl	8000698 <SPI_SendData8>
    while(SPI_I2S_GetFlagStatus(SPI2, SPI_I2S_FLAG_TXE) != SET) { }
 8000c08:	bf00      	nop
 8000c0a:	2102      	movs	r1, #2
 8000c0c:	4809      	ldr	r0, [pc, #36]	; (8000c34 <lcd_transmit_byte+0x60>)
 8000c0e:	f7ff fd59 	bl	80006c4 <SPI_I2S_GetFlagStatus>
 8000c12:	4603      	mov	r3, r0
 8000c14:	2b01      	cmp	r3, #1
 8000c16:	d1f8      	bne.n	8000c0a <lcd_transmit_byte+0x36>
    GPIOB->ODR |=  (0x0001 << 6); // CS = 1 - End Transmission
 8000c18:	4b05      	ldr	r3, [pc, #20]	; (8000c30 <lcd_transmit_byte+0x5c>)
 8000c1a:	8a9b      	ldrh	r3, [r3, #20]
 8000c1c:	b29b      	uxth	r3, r3
 8000c1e:	4a04      	ldr	r2, [pc, #16]	; (8000c30 <lcd_transmit_byte+0x5c>)
 8000c20:	f043 0340 	orr.w	r3, r3, #64	; 0x40
 8000c24:	b29b      	uxth	r3, r3
 8000c26:	8293      	strh	r3, [r2, #20]
}
 8000c28:	bf00      	nop
 8000c2a:	3708      	adds	r7, #8
 8000c2c:	46bd      	mov	sp, r7
 8000c2e:	bd80      	pop	{r7, pc}
 8000c30:	48000400 	.word	0x48000400
 8000c34:	40003800 	.word	0x40003800

08000c38 <lcd_push_buffer>:

void lcd_push_buffer(uint8_t* buffer)
{
 8000c38:	b580      	push	{r7, lr}
 8000c3a:	b084      	sub	sp, #16
 8000c3c:	af00      	add	r7, sp, #0
 8000c3e:	6078      	str	r0, [r7, #4]
    int i = 0;
 8000c40:	2300      	movs	r3, #0
 8000c42:	60fb      	str	r3, [r7, #12]

    //page 0
    GPIOA->ODR &= ~(0x0001 << 8); // A0 = 0 - Set Command
 8000c44:	f04f 4390 	mov.w	r3, #1207959552	; 0x48000000
 8000c48:	8a9b      	ldrh	r3, [r3, #20]
 8000c4a:	b29b      	uxth	r3, r3
 8000c4c:	f04f 4290 	mov.w	r2, #1207959552	; 0x48000000
 8000c50:	f423 7380 	bic.w	r3, r3, #256	; 0x100
 8000c54:	b29b      	uxth	r3, r3
 8000c56:	8293      	strh	r3, [r2, #20]
    lcd_transmit_byte(0x00);      // set column low nibble 0
 8000c58:	2000      	movs	r0, #0
 8000c5a:	f7ff ffbb 	bl	8000bd4 <lcd_transmit_byte>
    lcd_transmit_byte(0x10);      // set column hi  nibble 0
 8000c5e:	2010      	movs	r0, #16
 8000c60:	f7ff ffb8 	bl	8000bd4 <lcd_transmit_byte>
    lcd_transmit_byte(0xB0);      // set page address  0
 8000c64:	20b0      	movs	r0, #176	; 0xb0
 8000c66:	f7ff ffb5 	bl	8000bd4 <lcd_transmit_byte>

    GPIOA->ODR |=  (0x0001 << 8); // A0 = 1 - Set Data
 8000c6a:	f04f 4390 	mov.w	r3, #1207959552	; 0x48000000
 8000c6e:	8a9b      	ldrh	r3, [r3, #20]
 8000c70:	b29b      	uxth	r3, r3
 8000c72:	f04f 4290 	mov.w	r2, #1207959552	; 0x48000000
 8000c76:	f443 7380 	orr.w	r3, r3, #256	; 0x100
 8000c7a:	b29b      	uxth	r3, r3
 8000c7c:	8293      	strh	r3, [r2, #20]
    for(i=0; i<128; i++) {
 8000c7e:	2300      	movs	r3, #0
 8000c80:	60fb      	str	r3, [r7, #12]
 8000c82:	e009      	b.n	8000c98 <lcd_push_buffer+0x60>
       lcd_transmit_byte(buffer[i]);
 8000c84:	68fb      	ldr	r3, [r7, #12]
 8000c86:	687a      	ldr	r2, [r7, #4]
 8000c88:	4413      	add	r3, r2
 8000c8a:	781b      	ldrb	r3, [r3, #0]
 8000c8c:	4618      	mov	r0, r3
 8000c8e:	f7ff ffa1 	bl	8000bd4 <lcd_transmit_byte>
    for(i=0; i<128; i++) {
 8000c92:	68fb      	ldr	r3, [r7, #12]
 8000c94:	3301      	adds	r3, #1
 8000c96:	60fb      	str	r3, [r7, #12]
 8000c98:	68fb      	ldr	r3, [r7, #12]
 8000c9a:	2b7f      	cmp	r3, #127	; 0x7f
 8000c9c:	ddf2      	ble.n	8000c84 <lcd_push_buffer+0x4c>
    }

    // page 1
    GPIOA->ODR &= ~(0x0001 << 8); // A0 = 0 - Set Command
 8000c9e:	f04f 4390 	mov.w	r3, #1207959552	; 0x48000000
 8000ca2:	8a9b      	ldrh	r3, [r3, #20]
 8000ca4:	b29b      	uxth	r3, r3
 8000ca6:	f04f 4290 	mov.w	r2, #1207959552	; 0x48000000
 8000caa:	f423 7380 	bic.w	r3, r3, #256	; 0x100
 8000cae:	b29b      	uxth	r3, r3
 8000cb0:	8293      	strh	r3, [r2, #20]
    lcd_transmit_byte(0x00);      // set column low nibble 0
 8000cb2:	2000      	movs	r0, #0
 8000cb4:	f7ff ff8e 	bl	8000bd4 <lcd_transmit_byte>
    lcd_transmit_byte(0x10);      // set column hi  nibble 0
 8000cb8:	2010      	movs	r0, #16
 8000cba:	f7ff ff8b 	bl	8000bd4 <lcd_transmit_byte>
    lcd_transmit_byte(0xB1);      // set page address  1
 8000cbe:	20b1      	movs	r0, #177	; 0xb1
 8000cc0:	f7ff ff88 	bl	8000bd4 <lcd_transmit_byte>

    GPIOA->ODR |=  (0x0001 << 8); // A0 = 1 - Set Data
 8000cc4:	f04f 4390 	mov.w	r3, #1207959552	; 0x48000000
 8000cc8:	8a9b      	ldrh	r3, [r3, #20]
 8000cca:	b29b      	uxth	r3, r3
 8000ccc:	f04f 4290 	mov.w	r2, #1207959552	; 0x48000000
 8000cd0:	f443 7380 	orr.w	r3, r3, #256	; 0x100
 8000cd4:	b29b      	uxth	r3, r3
 8000cd6:	8293      	strh	r3, [r2, #20]
    for( i = 128 ; i < 256 ; i++ ) {
 8000cd8:	2380      	movs	r3, #128	; 0x80
 8000cda:	60fb      	str	r3, [r7, #12]
 8000cdc:	e009      	b.n	8000cf2 <lcd_push_buffer+0xba>
       lcd_transmit_byte(buffer[i]);
 8000cde:	68fb      	ldr	r3, [r7, #12]
 8000ce0:	687a      	ldr	r2, [r7, #4]
 8000ce2:	4413      	add	r3, r2
 8000ce4:	781b      	ldrb	r3, [r3, #0]
 8000ce6:	4618      	mov	r0, r3
 8000ce8:	f7ff ff74 	bl	8000bd4 <lcd_transmit_byte>
    for( i = 128 ; i < 256 ; i++ ) {
 8000cec:	68fb      	ldr	r3, [r7, #12]
 8000cee:	3301      	adds	r3, #1
 8000cf0:	60fb      	str	r3, [r7, #12]
 8000cf2:	68fb      	ldr	r3, [r7, #12]
 8000cf4:	2bff      	cmp	r3, #255	; 0xff
 8000cf6:	ddf2      	ble.n	8000cde <lcd_push_buffer+0xa6>
    }

    //page 2
    GPIOA->ODR &= ~(0x0001 << 8); // A0 = 0 - Set Command
 8000cf8:	f04f 4390 	mov.w	r3, #1207959552	; 0x48000000
 8000cfc:	8a9b      	ldrh	r3, [r3, #20]
 8000cfe:	b29b      	uxth	r3, r3
 8000d00:	f04f 4290 	mov.w	r2, #1207959552	; 0x48000000
 8000d04:	f423 7380 	bic.w	r3, r3, #256	; 0x100
 8000d08:	b29b      	uxth	r3, r3
 8000d0a:	8293      	strh	r3, [r2, #20]
    lcd_transmit_byte(0x00);      // set column low nibble 0
 8000d0c:	2000      	movs	r0, #0
 8000d0e:	f7ff ff61 	bl	8000bd4 <lcd_transmit_byte>
    lcd_transmit_byte(0x10);      // set column hi  nibble 0
 8000d12:	2010      	movs	r0, #16
 8000d14:	f7ff ff5e 	bl	8000bd4 <lcd_transmit_byte>
    lcd_transmit_byte(0xB2);      // set page address  2
 8000d18:	20b2      	movs	r0, #178	; 0xb2
 8000d1a:	f7ff ff5b 	bl	8000bd4 <lcd_transmit_byte>

    GPIOA->ODR |=  (0x0001 << 8); // A0 = 1 - Set Data
 8000d1e:	f04f 4390 	mov.w	r3, #1207959552	; 0x48000000
 8000d22:	8a9b      	ldrh	r3, [r3, #20]
 8000d24:	b29b      	uxth	r3, r3
 8000d26:	f04f 4290 	mov.w	r2, #1207959552	; 0x48000000
 8000d2a:	f443 7380 	orr.w	r3, r3, #256	; 0x100
 8000d2e:	b29b      	uxth	r3, r3
 8000d30:	8293      	strh	r3, [r2, #20]
    for(i=256; i<384; i++) {
 8000d32:	f44f 7380 	mov.w	r3, #256	; 0x100
 8000d36:	60fb      	str	r3, [r7, #12]
 8000d38:	e009      	b.n	8000d4e <lcd_push_buffer+0x116>
       lcd_transmit_byte(buffer[i]);
 8000d3a:	68fb      	ldr	r3, [r7, #12]
 8000d3c:	687a      	ldr	r2, [r7, #4]
 8000d3e:	4413      	add	r3, r2
 8000d40:	781b      	ldrb	r3, [r3, #0]
 8000d42:	4618      	mov	r0, r3
 8000d44:	f7ff ff46 	bl	8000bd4 <lcd_transmit_byte>
    for(i=256; i<384; i++) {
 8000d48:	68fb      	ldr	r3, [r7, #12]
 8000d4a:	3301      	adds	r3, #1
 8000d4c:	60fb      	str	r3, [r7, #12]
 8000d4e:	68fb      	ldr	r3, [r7, #12]
 8000d50:	f5b3 7fc0 	cmp.w	r3, #384	; 0x180
 8000d54:	dbf1      	blt.n	8000d3a <lcd_push_buffer+0x102>
    }

    //page 3
    GPIOA->ODR &= ~(0x0001 << 8); // A0 = 0 - Set Command
 8000d56:	f04f 4390 	mov.w	r3, #1207959552	; 0x48000000
 8000d5a:	8a9b      	ldrh	r3, [r3, #20]
 8000d5c:	b29b      	uxth	r3, r3
 8000d5e:	f04f 4290 	mov.w	r2, #1207959552	; 0x48000000
 8000d62:	f423 7380 	bic.w	r3, r3, #256	; 0x100
 8000d66:	b29b      	uxth	r3, r3
 8000d68:	8293      	strh	r3, [r2, #20]
    lcd_transmit_byte(0x00);      // set column low nibble 0
 8000d6a:	2000      	movs	r0, #0
 8000d6c:	f7ff ff32 	bl	8000bd4 <lcd_transmit_byte>
    lcd_transmit_byte(0x10);      // set column hi  nibble 0
 8000d70:	2010      	movs	r0, #16
 8000d72:	f7ff ff2f 	bl	8000bd4 <lcd_transmit_byte>
    lcd_transmit_byte(0xB3);      // set page address  3
 8000d76:	20b3      	movs	r0, #179	; 0xb3
 8000d78:	f7ff ff2c 	bl	8000bd4 <lcd_transmit_byte>

    GPIOA->ODR |=  (0x0001 << 8); // A0 = 1 - Set Data
 8000d7c:	f04f 4390 	mov.w	r3, #1207959552	; 0x48000000
 8000d80:	8a9b      	ldrh	r3, [r3, #20]
 8000d82:	b29b      	uxth	r3, r3
 8000d84:	f04f 4290 	mov.w	r2, #1207959552	; 0x48000000
 8000d88:	f443 7380 	orr.w	r3, r3, #256	; 0x100
 8000d8c:	b29b      	uxth	r3, r3
 8000d8e:	8293      	strh	r3, [r2, #20]
    for(i=384; i<512; i++) {
 8000d90:	f44f 73c0 	mov.w	r3, #384	; 0x180
 8000d94:	60fb      	str	r3, [r7, #12]
 8000d96:	e009      	b.n	8000dac <lcd_push_buffer+0x174>
       lcd_transmit_byte(buffer[i]);
 8000d98:	68fb      	ldr	r3, [r7, #12]
 8000d9a:	687a      	ldr	r2, [r7, #4]
 8000d9c:	4413      	add	r3, r2
 8000d9e:	781b      	ldrb	r3, [r3, #0]
 8000da0:	4618      	mov	r0, r3
 8000da2:	f7ff ff17 	bl	8000bd4 <lcd_transmit_byte>
    for(i=384; i<512; i++) {
 8000da6:	68fb      	ldr	r3, [r7, #12]
 8000da8:	3301      	adds	r3, #1
 8000daa:	60fb      	str	r3, [r7, #12]
 8000dac:	68fb      	ldr	r3, [r7, #12]
 8000dae:	f5b3 7f00 	cmp.w	r3, #512	; 0x200
 8000db2:	dbf1      	blt.n	8000d98 <lcd_push_buffer+0x160>
    }
}
 8000db4:	bf00      	nop
 8000db6:	bf00      	nop
 8000db8:	3710      	adds	r7, #16
 8000dba:	46bd      	mov	sp, r7
 8000dbc:	bd80      	pop	{r7, pc}
	...

08000dc0 <lcd_reset>:

void lcd_reset()
{
 8000dc0:	b580      	push	{r7, lr}
 8000dc2:	b082      	sub	sp, #8
 8000dc4:	af00      	add	r7, sp, #0
    GPIOA->ODR &= ~(0x0001 << 8); // A0 = 0 - Reset Command/Data
 8000dc6:	f04f 4390 	mov.w	r3, #1207959552	; 0x48000000
 8000dca:	8a9b      	ldrh	r3, [r3, #20]
 8000dcc:	b29b      	uxth	r3, r3
 8000dce:	f04f 4290 	mov.w	r2, #1207959552	; 0x48000000
 8000dd2:	f423 7380 	bic.w	r3, r3, #256	; 0x100
 8000dd6:	b29b      	uxth	r3, r3
 8000dd8:	8293      	strh	r3, [r2, #20]
    GPIOB->ODR |=  (0x0001 << 6); // CS = 1 - Reset C/S
 8000dda:	4b2f      	ldr	r3, [pc, #188]	; (8000e98 <lcd_reset+0xd8>)
 8000ddc:	8a9b      	ldrh	r3, [r3, #20]
 8000dde:	b29b      	uxth	r3, r3
 8000de0:	4a2d      	ldr	r2, [pc, #180]	; (8000e98 <lcd_reset+0xd8>)
 8000de2:	f043 0340 	orr.w	r3, r3, #64	; 0x40
 8000de6:	b29b      	uxth	r3, r3
 8000de8:	8293      	strh	r3, [r2, #20]

    GPIOB->ODR &= ~(0x0001 << 14); // RESET = 0 - Reset Display
 8000dea:	4b2b      	ldr	r3, [pc, #172]	; (8000e98 <lcd_reset+0xd8>)
 8000dec:	8a9b      	ldrh	r3, [r3, #20]
 8000dee:	b29b      	uxth	r3, r3
 8000df0:	4a29      	ldr	r2, [pc, #164]	; (8000e98 <lcd_reset+0xd8>)
 8000df2:	f423 4380 	bic.w	r3, r3, #16384	; 0x4000
 8000df6:	b29b      	uxth	r3, r3
 8000df8:	8293      	strh	r3, [r2, #20]
    for (uint32_t i = 0 ; i < 4680 ; i++) { asm("nop"); }; // Wait
 8000dfa:	2300      	movs	r3, #0
 8000dfc:	607b      	str	r3, [r7, #4]
 8000dfe:	e003      	b.n	8000e08 <lcd_reset+0x48>
 8000e00:	bf00      	nop
 8000e02:	687b      	ldr	r3, [r7, #4]
 8000e04:	3301      	adds	r3, #1
 8000e06:	607b      	str	r3, [r7, #4]
 8000e08:	687b      	ldr	r3, [r7, #4]
 8000e0a:	f241 2247 	movw	r2, #4679	; 0x1247
 8000e0e:	4293      	cmp	r3, r2
 8000e10:	d9f6      	bls.n	8000e00 <lcd_reset+0x40>
    GPIOB->ODR |=  (0x0001 << 14); // RESET = 1 - Stop Reset
 8000e12:	4b21      	ldr	r3, [pc, #132]	; (8000e98 <lcd_reset+0xd8>)
 8000e14:	8a9b      	ldrh	r3, [r3, #20]
 8000e16:	b29b      	uxth	r3, r3
 8000e18:	4a1f      	ldr	r2, [pc, #124]	; (8000e98 <lcd_reset+0xd8>)
 8000e1a:	f443 4380 	orr.w	r3, r3, #16384	; 0x4000
 8000e1e:	b29b      	uxth	r3, r3
 8000e20:	8293      	strh	r3, [r2, #20]
    for (uint32_t i = 0 ; i < 390000 ; i++) { asm("nop"); }; // Wait
 8000e22:	2300      	movs	r3, #0
 8000e24:	603b      	str	r3, [r7, #0]
 8000e26:	e003      	b.n	8000e30 <lcd_reset+0x70>
 8000e28:	bf00      	nop
 8000e2a:	683b      	ldr	r3, [r7, #0]
 8000e2c:	3301      	adds	r3, #1
 8000e2e:	603b      	str	r3, [r7, #0]
 8000e30:	683b      	ldr	r3, [r7, #0]
 8000e32:	4a1a      	ldr	r2, [pc, #104]	; (8000e9c <lcd_reset+0xdc>)
 8000e34:	4293      	cmp	r3, r2
 8000e36:	d9f7      	bls.n	8000e28 <lcd_reset+0x68>

    // Configure Display
    GPIOA->ODR &= ~(0x0001 << 8); // A0 = 0 - Set Command
 8000e38:	f04f 4390 	mov.w	r3, #1207959552	; 0x48000000
 8000e3c:	8a9b      	ldrh	r3, [r3, #20]
 8000e3e:	b29b      	uxth	r3, r3
 8000e40:	f04f 4290 	mov.w	r2, #1207959552	; 0x48000000
 8000e44:	f423 7380 	bic.w	r3, r3, #256	; 0x100
 8000e48:	b29b      	uxth	r3, r3
 8000e4a:	8293      	strh	r3, [r2, #20]

    lcd_transmit_byte(0xAE);  // Turn off display
 8000e4c:	20ae      	movs	r0, #174	; 0xae
 8000e4e:	f7ff fec1 	bl	8000bd4 <lcd_transmit_byte>
    lcd_transmit_byte(0xA2);  // Set bias voltage to 1/9
 8000e52:	20a2      	movs	r0, #162	; 0xa2
 8000e54:	f7ff febe 	bl	8000bd4 <lcd_transmit_byte>

    lcd_transmit_byte(0xA0);  // Set display RAM address normal
 8000e58:	20a0      	movs	r0, #160	; 0xa0
 8000e5a:	f7ff febb 	bl	8000bd4 <lcd_transmit_byte>
    lcd_transmit_byte(0xC8);  // Set update direction
 8000e5e:	20c8      	movs	r0, #200	; 0xc8
 8000e60:	f7ff feb8 	bl	8000bd4 <lcd_transmit_byte>

    lcd_transmit_byte(0x22);  // Set internal resistor ratio
 8000e64:	2022      	movs	r0, #34	; 0x22
 8000e66:	f7ff feb5 	bl	8000bd4 <lcd_transmit_byte>
    lcd_transmit_byte(0x2F);  // Set operating mode
 8000e6a:	202f      	movs	r0, #47	; 0x2f
 8000e6c:	f7ff feb2 	bl	8000bd4 <lcd_transmit_byte>
    lcd_transmit_byte(0x40);  // Set start line address
 8000e70:	2040      	movs	r0, #64	; 0x40
 8000e72:	f7ff feaf 	bl	8000bd4 <lcd_transmit_byte>

    lcd_transmit_byte(0xAF);  // Turn on display
 8000e76:	20af      	movs	r0, #175	; 0xaf
 8000e78:	f7ff feac 	bl	8000bd4 <lcd_transmit_byte>

    lcd_transmit_byte(0x81);  // Set output voltage
 8000e7c:	2081      	movs	r0, #129	; 0x81
 8000e7e:	f7ff fea9 	bl	8000bd4 <lcd_transmit_byte>
    lcd_transmit_byte(0x17);  // Set contrast
 8000e82:	2017      	movs	r0, #23
 8000e84:	f7ff fea6 	bl	8000bd4 <lcd_transmit_byte>

    lcd_transmit_byte(0xA6);  // Set normal mode
 8000e88:	20a6      	movs	r0, #166	; 0xa6
 8000e8a:	f7ff fea3 	bl	8000bd4 <lcd_transmit_byte>
}
 8000e8e:	bf00      	nop
 8000e90:	3708      	adds	r7, #8
 8000e92:	46bd      	mov	sp, r7
 8000e94:	bd80      	pop	{r7, pc}
 8000e96:	bf00      	nop
 8000e98:	48000400 	.word	0x48000400
 8000e9c:	0005f36f 	.word	0x0005f36f

08000ea0 <lcd_init>:

void lcd_init() {
 8000ea0:	b580      	push	{r7, lr}
 8000ea2:	af00      	add	r7, sp, #0
    // Enable Clocks
    RCC->AHBENR  |= 0x00020000 | 0x00040000;    // Enable Clock for GPIO Banks A and B
 8000ea4:	4b9d      	ldr	r3, [pc, #628]	; (800111c <lcd_init+0x27c>)
 8000ea6:	695b      	ldr	r3, [r3, #20]
 8000ea8:	4a9c      	ldr	r2, [pc, #624]	; (800111c <lcd_init+0x27c>)
 8000eaa:	f443 23c0 	orr.w	r3, r3, #393216	; 0x60000
 8000eae:	6153      	str	r3, [r2, #20]
    RCC->APB1ENR |= 0x00004000;                 // Enable Clock for SPI2
 8000eb0:	4b9a      	ldr	r3, [pc, #616]	; (800111c <lcd_init+0x27c>)
 8000eb2:	69db      	ldr	r3, [r3, #28]
 8000eb4:	4a99      	ldr	r2, [pc, #612]	; (800111c <lcd_init+0x27c>)
 8000eb6:	f443 4380 	orr.w	r3, r3, #16384	; 0x4000
 8000eba:	61d3      	str	r3, [r2, #28]

    // Connect pins to SPI2
    GPIOB->AFR[13 >> 0x03] &= ~(0x0000000F << ((13 & 0x00000007) * 4)); // Clear alternate function for PB13
 8000ebc:	4b98      	ldr	r3, [pc, #608]	; (8001120 <lcd_init+0x280>)
 8000ebe:	6a5b      	ldr	r3, [r3, #36]	; 0x24
 8000ec0:	4a97      	ldr	r2, [pc, #604]	; (8001120 <lcd_init+0x280>)
 8000ec2:	f423 0370 	bic.w	r3, r3, #15728640	; 0xf00000
 8000ec6:	6253      	str	r3, [r2, #36]	; 0x24
    GPIOB->AFR[13 >> 0x03] |=  (0x00000005 << ((13 & 0x00000007) * 4)); // Set alternate 5 function for PB13 - SCLK
 8000ec8:	4b95      	ldr	r3, [pc, #596]	; (8001120 <lcd_init+0x280>)
 8000eca:	6a5b      	ldr	r3, [r3, #36]	; 0x24
 8000ecc:	4a94      	ldr	r2, [pc, #592]	; (8001120 <lcd_init+0x280>)
 8000ece:	f443 03a0 	orr.w	r3, r3, #5242880	; 0x500000
 8000ed2:	6253      	str	r3, [r2, #36]	; 0x24
    GPIOB->AFR[15 >> 0x03] &= ~(0x0000000F << ((15 & 0x00000007) * 4)); // Clear alternate function for PB15
 8000ed4:	4b92      	ldr	r3, [pc, #584]	; (8001120 <lcd_init+0x280>)
 8000ed6:	6a5b      	ldr	r3, [r3, #36]	; 0x24
 8000ed8:	4a91      	ldr	r2, [pc, #580]	; (8001120 <lcd_init+0x280>)
 8000eda:	f023 4370 	bic.w	r3, r3, #4026531840	; 0xf0000000
 8000ede:	6253      	str	r3, [r2, #36]	; 0x24
    GPIOB->AFR[15 >> 0x03] |=  (0x00000005 << ((15 & 0x00000007) * 4)); // Set alternate 5 function for PB15 - MOSI
 8000ee0:	4b8f      	ldr	r3, [pc, #572]	; (8001120 <lcd_init+0x280>)
 8000ee2:	6a5b      	ldr	r3, [r3, #36]	; 0x24
 8000ee4:	4a8e      	ldr	r2, [pc, #568]	; (8001120 <lcd_init+0x280>)
 8000ee6:	f043 43a0 	orr.w	r3, r3, #1342177280	; 0x50000000
 8000eea:	6253      	str	r3, [r2, #36]	; 0x24

    // Configure pins PB13 and PB15 for 10 MHz alternate function
    GPIOB->OSPEEDR &= ~(0x00000003 << (13 * 2) | 0x00000003 << (15 * 2));    // Clear speed register
 8000eec:	4b8c      	ldr	r3, [pc, #560]	; (8001120 <lcd_init+0x280>)
 8000eee:	689b      	ldr	r3, [r3, #8]
 8000ef0:	4a8b      	ldr	r2, [pc, #556]	; (8001120 <lcd_init+0x280>)
 8000ef2:	f023 434c 	bic.w	r3, r3, #3422552064	; 0xcc000000
 8000ef6:	6093      	str	r3, [r2, #8]
    GPIOB->OSPEEDR |=  (0x00000001 << (13 * 2) | 0x00000001 << (15 * 2));    // set speed register (0x01 - 10 MHz, 0x02 - 2 MHz, 0x03 - 50 MHz)
 8000ef8:	4b89      	ldr	r3, [pc, #548]	; (8001120 <lcd_init+0x280>)
 8000efa:	689b      	ldr	r3, [r3, #8]
 8000efc:	4a88      	ldr	r2, [pc, #544]	; (8001120 <lcd_init+0x280>)
 8000efe:	f043 4388 	orr.w	r3, r3, #1140850688	; 0x44000000
 8000f02:	6093      	str	r3, [r2, #8]
    GPIOB->OTYPER  &= ~(0x0001     << (13)     | 0x0001     << (15));        // Clear output type register
 8000f04:	4b86      	ldr	r3, [pc, #536]	; (8001120 <lcd_init+0x280>)
 8000f06:	889b      	ldrh	r3, [r3, #4]
 8000f08:	b29a      	uxth	r2, r3
 8000f0a:	4985      	ldr	r1, [pc, #532]	; (8001120 <lcd_init+0x280>)
 8000f0c:	f645 73ff 	movw	r3, #24575	; 0x5fff
 8000f10:	4013      	ands	r3, r2
 8000f12:	b29b      	uxth	r3, r3
 8000f14:	808b      	strh	r3, [r1, #4]
    GPIOB->OTYPER  |=  (0x0000     << (13)     | 0x0000     << (15));        // Set output type register (0x00 - Push pull, 0x01 - Open drain)
 8000f16:	4a82      	ldr	r2, [pc, #520]	; (8001120 <lcd_init+0x280>)
 8000f18:	4b81      	ldr	r3, [pc, #516]	; (8001120 <lcd_init+0x280>)
 8000f1a:	8892      	ldrh	r2, [r2, #4]
 8000f1c:	b292      	uxth	r2, r2
 8000f1e:	809a      	strh	r2, [r3, #4]
    GPIOB->MODER   &= ~(0x00000003 << (13 * 2) | 0x00000003 << (15 * 2));    // Clear mode register
 8000f20:	4b7f      	ldr	r3, [pc, #508]	; (8001120 <lcd_init+0x280>)
 8000f22:	681b      	ldr	r3, [r3, #0]
 8000f24:	4a7e      	ldr	r2, [pc, #504]	; (8001120 <lcd_init+0x280>)
 8000f26:	f023 434c 	bic.w	r3, r3, #3422552064	; 0xcc000000
 8000f2a:	6013      	str	r3, [r2, #0]
    GPIOB->MODER   |=  (0x00000002 << (13 * 2) | 0x00000002 << (15 * 2));    // Set mode register (0x00 - Input, 0x01 - Output, 0x02 - Alternate Function, 0x03 - Analog in/out)
 8000f2c:	4b7c      	ldr	r3, [pc, #496]	; (8001120 <lcd_init+0x280>)
 8000f2e:	681b      	ldr	r3, [r3, #0]
 8000f30:	4a7b      	ldr	r2, [pc, #492]	; (8001120 <lcd_init+0x280>)
 8000f32:	f043 4308 	orr.w	r3, r3, #2281701376	; 0x88000000
 8000f36:	6013      	str	r3, [r2, #0]
    GPIOB->PUPDR   &= ~(0x00000003 << (13 * 2) | 0x00000003 << (15 * 2));    // Clear push/pull register
 8000f38:	4b79      	ldr	r3, [pc, #484]	; (8001120 <lcd_init+0x280>)
 8000f3a:	68db      	ldr	r3, [r3, #12]
 8000f3c:	4a78      	ldr	r2, [pc, #480]	; (8001120 <lcd_init+0x280>)
 8000f3e:	f023 434c 	bic.w	r3, r3, #3422552064	; 0xcc000000
 8000f42:	60d3      	str	r3, [r2, #12]
    GPIOB->PUPDR   |=  (0x00000000 << (13 * 2) | 0x00000000 << (15 * 2));    // Set push/pull register (0x00 - No pull, 0x01 - Pull-up, 0x02 - Pull-down)
 8000f44:	4b76      	ldr	r3, [pc, #472]	; (8001120 <lcd_init+0x280>)
 8000f46:	4a76      	ldr	r2, [pc, #472]	; (8001120 <lcd_init+0x280>)
 8000f48:	68db      	ldr	r3, [r3, #12]
 8000f4a:	60d3      	str	r3, [r2, #12]

    // Initialize REEST, nCS, and A0
    // Configure pins PB6 and PB14 for 10 MHz output
    GPIOB->OSPEEDR &= ~(0x00000003 << (6 * 2) | 0x00000003 << (14 * 2));    // Clear speed register
 8000f4c:	4b74      	ldr	r3, [pc, #464]	; (8001120 <lcd_init+0x280>)
 8000f4e:	689b      	ldr	r3, [r3, #8]
 8000f50:	4a73      	ldr	r2, [pc, #460]	; (8001120 <lcd_init+0x280>)
 8000f52:	f023 2330 	bic.w	r3, r3, #805318656	; 0x30003000
 8000f56:	6093      	str	r3, [r2, #8]
    GPIOB->OSPEEDR |=  (0x00000001 << (6 * 2) | 0x00000001 << (14 * 2));    // set speed register (0x01 - 10 MHz, 0x02 - 2 MHz, 0x03 - 50 MHz)
 8000f58:	4b71      	ldr	r3, [pc, #452]	; (8001120 <lcd_init+0x280>)
 8000f5a:	689b      	ldr	r3, [r3, #8]
 8000f5c:	4a70      	ldr	r2, [pc, #448]	; (8001120 <lcd_init+0x280>)
 8000f5e:	f043 2310 	orr.w	r3, r3, #268439552	; 0x10001000
 8000f62:	6093      	str	r3, [r2, #8]
    GPIOB->OTYPER  &= ~(0x0001     << (6)     | 0x0001     << (14));        // Clear output type register
 8000f64:	4b6e      	ldr	r3, [pc, #440]	; (8001120 <lcd_init+0x280>)
 8000f66:	889b      	ldrh	r3, [r3, #4]
 8000f68:	b29b      	uxth	r3, r3
 8000f6a:	4a6d      	ldr	r2, [pc, #436]	; (8001120 <lcd_init+0x280>)
 8000f6c:	f423 4380 	bic.w	r3, r3, #16384	; 0x4000
 8000f70:	f023 0340 	bic.w	r3, r3, #64	; 0x40
 8000f74:	b29b      	uxth	r3, r3
 8000f76:	8093      	strh	r3, [r2, #4]
    GPIOB->OTYPER  |=  (0x0000     << (6)     | 0x0000     << (14));        // Set output type register (0x00 - Push pull, 0x01 - Open drain)
 8000f78:	4a69      	ldr	r2, [pc, #420]	; (8001120 <lcd_init+0x280>)
 8000f7a:	4b69      	ldr	r3, [pc, #420]	; (8001120 <lcd_init+0x280>)
 8000f7c:	8892      	ldrh	r2, [r2, #4]
 8000f7e:	b292      	uxth	r2, r2
 8000f80:	809a      	strh	r2, [r3, #4]
    GPIOB->MODER   &= ~(0x00000003 << (6 * 2) | 0x00000003 << (14 * 2));    // Clear mode register
 8000f82:	4b67      	ldr	r3, [pc, #412]	; (8001120 <lcd_init+0x280>)
 8000f84:	681b      	ldr	r3, [r3, #0]
 8000f86:	4a66      	ldr	r2, [pc, #408]	; (8001120 <lcd_init+0x280>)
 8000f88:	f023 2330 	bic.w	r3, r3, #805318656	; 0x30003000
 8000f8c:	6013      	str	r3, [r2, #0]
    GPIOB->MODER   |=  (0x00000001 << (6 * 2) | 0x00000001 << (14 * 2));    // Set mode register (0x00 - Input, 0x01 - Output, 0x02 - Alternate Function, 0x03 - Analog in/out)
 8000f8e:	4b64      	ldr	r3, [pc, #400]	; (8001120 <lcd_init+0x280>)
 8000f90:	681b      	ldr	r3, [r3, #0]
 8000f92:	4a63      	ldr	r2, [pc, #396]	; (8001120 <lcd_init+0x280>)
 8000f94:	f043 2310 	orr.w	r3, r3, #268439552	; 0x10001000
 8000f98:	6013      	str	r3, [r2, #0]
    GPIOB->PUPDR   &= ~(0x00000003 << (6 * 2) | 0x00000003 << (14 * 2));    // Clear push/pull register
 8000f9a:	4b61      	ldr	r3, [pc, #388]	; (8001120 <lcd_init+0x280>)
 8000f9c:	68db      	ldr	r3, [r3, #12]
 8000f9e:	4a60      	ldr	r2, [pc, #384]	; (8001120 <lcd_init+0x280>)
 8000fa0:	f023 2330 	bic.w	r3, r3, #805318656	; 0x30003000
 8000fa4:	60d3      	str	r3, [r2, #12]
    GPIOB->PUPDR   |=  (0x00000000 << (6 * 2) | 0x00000000 << (14 * 2));    // Set push/pull register (0x00 - No pull, 0x01 - Pull-up, 0x02 - Pull-down)
 8000fa6:	4b5e      	ldr	r3, [pc, #376]	; (8001120 <lcd_init+0x280>)
 8000fa8:	4a5d      	ldr	r2, [pc, #372]	; (8001120 <lcd_init+0x280>)
 8000faa:	68db      	ldr	r3, [r3, #12]
 8000fac:	60d3      	str	r3, [r2, #12]
    // Configure pin PA8 for 10 MHz output
    GPIOA->OSPEEDR &= ~0x00000003 << (8 * 2);    // Clear speed register
 8000fae:	f04f 4390 	mov.w	r3, #1207959552	; 0x48000000
 8000fb2:	689b      	ldr	r3, [r3, #8]
 8000fb4:	f04f 4290 	mov.w	r2, #1207959552	; 0x48000000
 8000fb8:	0c9b      	lsrs	r3, r3, #18
 8000fba:	049b      	lsls	r3, r3, #18
 8000fbc:	6093      	str	r3, [r2, #8]
    GPIOA->OSPEEDR |=  0x00000001 << (8 * 2);    // set speed register (0x01 - 10 MHz, 0x02 - 2 MHz, 0x03 - 50 MHz)
 8000fbe:	f04f 4390 	mov.w	r3, #1207959552	; 0x48000000
 8000fc2:	689b      	ldr	r3, [r3, #8]
 8000fc4:	f04f 4290 	mov.w	r2, #1207959552	; 0x48000000
 8000fc8:	f443 3380 	orr.w	r3, r3, #65536	; 0x10000
 8000fcc:	6093      	str	r3, [r2, #8]
    GPIOA->OTYPER  &= ~0x0001     << (8);        // Clear output type register
 8000fce:	f04f 4390 	mov.w	r3, #1207959552	; 0x48000000
 8000fd2:	889b      	ldrh	r3, [r3, #4]
 8000fd4:	b29b      	uxth	r3, r3
 8000fd6:	f04f 4290 	mov.w	r2, #1207959552	; 0x48000000
 8000fda:	f423 73ff 	bic.w	r3, r3, #510	; 0x1fe
 8000fde:	f023 0301 	bic.w	r3, r3, #1
 8000fe2:	b29b      	uxth	r3, r3
 8000fe4:	8093      	strh	r3, [r2, #4]
    GPIOA->OTYPER  |=  0x0000     << (8);        // Set output type register (0x00 - Push pull, 0x01 - Open drain)
 8000fe6:	f04f 4290 	mov.w	r2, #1207959552	; 0x48000000
 8000fea:	f04f 4390 	mov.w	r3, #1207959552	; 0x48000000
 8000fee:	8892      	ldrh	r2, [r2, #4]
 8000ff0:	b292      	uxth	r2, r2
 8000ff2:	809a      	strh	r2, [r3, #4]


    GPIOA->MODER   &= ~0x00000003 << (8 * 2);    // Clear mode register
 8000ff4:	f04f 4390 	mov.w	r3, #1207959552	; 0x48000000
 8000ff8:	681b      	ldr	r3, [r3, #0]
 8000ffa:	f04f 4290 	mov.w	r2, #1207959552	; 0x48000000
 8000ffe:	0c9b      	lsrs	r3, r3, #18
 8001000:	049b      	lsls	r3, r3, #18
 8001002:	6013      	str	r3, [r2, #0]
    GPIOA->MODER   |=  0x00000001 << (8 * 2);    // Set mode register (0x00 - Input, 0x01 - Output, 0x02 - Alternate Function, 0x03 - Analog in/out)
 8001004:	f04f 4390 	mov.w	r3, #1207959552	; 0x48000000
 8001008:	681b      	ldr	r3, [r3, #0]
 800100a:	f04f 4290 	mov.w	r2, #1207959552	; 0x48000000
 800100e:	f443 3380 	orr.w	r3, r3, #65536	; 0x10000
 8001012:	6013      	str	r3, [r2, #0]

    GPIOA->MODER   &= ~(0x00000003 << (2 * 2) | 0x00000003 << (3 * 2));    // This is needed for UART to work. It makes no sense.
 8001014:	f04f 4390 	mov.w	r3, #1207959552	; 0x48000000
 8001018:	681b      	ldr	r3, [r3, #0]
 800101a:	f04f 4290 	mov.w	r2, #1207959552	; 0x48000000
 800101e:	f023 03f0 	bic.w	r3, r3, #240	; 0xf0
 8001022:	6013      	str	r3, [r2, #0]
    GPIOA->MODER   |=  (0x00000002 << (2 * 2) | 0x00000002 << (3 * 2));
 8001024:	f04f 4390 	mov.w	r3, #1207959552	; 0x48000000
 8001028:	681b      	ldr	r3, [r3, #0]
 800102a:	f04f 4290 	mov.w	r2, #1207959552	; 0x48000000
 800102e:	f043 03a0 	orr.w	r3, r3, #160	; 0xa0
 8001032:	6013      	str	r3, [r2, #0]

    GPIOA->PUPDR   &= ~0x00000003 << (8 * 2);    // Clear push/pull register
 8001034:	f04f 4390 	mov.w	r3, #1207959552	; 0x48000000
 8001038:	68db      	ldr	r3, [r3, #12]
 800103a:	f04f 4290 	mov.w	r2, #1207959552	; 0x48000000
 800103e:	0c9b      	lsrs	r3, r3, #18
 8001040:	049b      	lsls	r3, r3, #18
 8001042:	60d3      	str	r3, [r2, #12]
    GPIOA->PUPDR   |=  0x00000000 << (8 * 2);    // Set push/pull register (0x00 - No pull, 0x01 - Pull-up, 0x02 - Pull-down)
 8001044:	f04f 4390 	mov.w	r3, #1207959552	; 0x48000000
 8001048:	f04f 4290 	mov.w	r2, #1207959552	; 0x48000000
 800104c:	68db      	ldr	r3, [r3, #12]
 800104e:	60d3      	str	r3, [r2, #12]

    GPIOB->ODR |=  (0x0001 << 6); // CS = 1
 8001050:	4b33      	ldr	r3, [pc, #204]	; (8001120 <lcd_init+0x280>)
 8001052:	8a9b      	ldrh	r3, [r3, #20]
 8001054:	b29b      	uxth	r3, r3
 8001056:	4a32      	ldr	r2, [pc, #200]	; (8001120 <lcd_init+0x280>)
 8001058:	f043 0340 	orr.w	r3, r3, #64	; 0x40
 800105c:	b29b      	uxth	r3, r3
 800105e:	8293      	strh	r3, [r2, #20]

    // Configure SPI2
    SPI2->CR1 &= 0x3040; // Clear CR1 Register
 8001060:	4b30      	ldr	r3, [pc, #192]	; (8001124 <lcd_init+0x284>)
 8001062:	881b      	ldrh	r3, [r3, #0]
 8001064:	b29b      	uxth	r3, r3
 8001066:	4a2f      	ldr	r2, [pc, #188]	; (8001124 <lcd_init+0x284>)
 8001068:	f403 5341 	and.w	r3, r3, #12352	; 0x3040
 800106c:	b29b      	uxth	r3, r3
 800106e:	8013      	strh	r3, [r2, #0]
    SPI2->CR1 |= 0x0000; // Configure direction (0x0000 - 2 Lines Full Duplex, 0x0400 - 2 Lines RX Only, 0x8000 - 1 Line RX, 0xC000 - 1 Line TX)
 8001070:	4a2c      	ldr	r2, [pc, #176]	; (8001124 <lcd_init+0x284>)
 8001072:	4b2c      	ldr	r3, [pc, #176]	; (8001124 <lcd_init+0x284>)
 8001074:	8812      	ldrh	r2, [r2, #0]
 8001076:	b292      	uxth	r2, r2
 8001078:	801a      	strh	r2, [r3, #0]
    SPI2->CR1 |= 0x0104; // Configure mode (0x0000 - Slave, 0x0104 - Master)
 800107a:	4b2a      	ldr	r3, [pc, #168]	; (8001124 <lcd_init+0x284>)
 800107c:	881b      	ldrh	r3, [r3, #0]
 800107e:	b29b      	uxth	r3, r3
 8001080:	4a28      	ldr	r2, [pc, #160]	; (8001124 <lcd_init+0x284>)
 8001082:	f443 7382 	orr.w	r3, r3, #260	; 0x104
 8001086:	b29b      	uxth	r3, r3
 8001088:	8013      	strh	r3, [r2, #0]
    SPI2->CR1 |= 0x0002; // Configure clock polarity (0x0000 - Low, 0x0002 - High)
 800108a:	4b26      	ldr	r3, [pc, #152]	; (8001124 <lcd_init+0x284>)
 800108c:	881b      	ldrh	r3, [r3, #0]
 800108e:	b29b      	uxth	r3, r3
 8001090:	4a24      	ldr	r2, [pc, #144]	; (8001124 <lcd_init+0x284>)
 8001092:	f043 0302 	orr.w	r3, r3, #2
 8001096:	b29b      	uxth	r3, r3
 8001098:	8013      	strh	r3, [r2, #0]
    SPI2->CR1 |= 0x0001; // Configure clock phase (0x0000 - 1 Edge, 0x0001 - 2 Edge)
 800109a:	4b22      	ldr	r3, [pc, #136]	; (8001124 <lcd_init+0x284>)
 800109c:	881b      	ldrh	r3, [r3, #0]
 800109e:	b29b      	uxth	r3, r3
 80010a0:	4a20      	ldr	r2, [pc, #128]	; (8001124 <lcd_init+0x284>)
 80010a2:	f043 0301 	orr.w	r3, r3, #1
 80010a6:	b29b      	uxth	r3, r3
 80010a8:	8013      	strh	r3, [r2, #0]
    SPI2->CR1 |= 0x0200; // Configure chip select (0x0000 - Hardware based, 0x0200 - Software based)
 80010aa:	4b1e      	ldr	r3, [pc, #120]	; (8001124 <lcd_init+0x284>)
 80010ac:	881b      	ldrh	r3, [r3, #0]
 80010ae:	b29b      	uxth	r3, r3
 80010b0:	4a1c      	ldr	r2, [pc, #112]	; (8001124 <lcd_init+0x284>)
 80010b2:	f443 7300 	orr.w	r3, r3, #512	; 0x200
 80010b6:	b29b      	uxth	r3, r3
 80010b8:	8013      	strh	r3, [r2, #0]
    SPI2->CR1 |= 0x0008; // Set Baud Rate Prescaler (0x0000 - 2, 0x0008 - 4, 0x0018 - 8, 0x0020 - 16, 0x0028 - 32, 0x0028 - 64, 0x0030 - 128, 0x0038 - 128)
 80010ba:	4b1a      	ldr	r3, [pc, #104]	; (8001124 <lcd_init+0x284>)
 80010bc:	881b      	ldrh	r3, [r3, #0]
 80010be:	b29b      	uxth	r3, r3
 80010c0:	4a18      	ldr	r2, [pc, #96]	; (8001124 <lcd_init+0x284>)
 80010c2:	f043 0308 	orr.w	r3, r3, #8
 80010c6:	b29b      	uxth	r3, r3
 80010c8:	8013      	strh	r3, [r2, #0]
    SPI2->CR1 |= 0x0000; // Set Bit Order (0x0000 - MSB First, 0x0080 - LSB First)
 80010ca:	4a16      	ldr	r2, [pc, #88]	; (8001124 <lcd_init+0x284>)
 80010cc:	4b15      	ldr	r3, [pc, #84]	; (8001124 <lcd_init+0x284>)
 80010ce:	8812      	ldrh	r2, [r2, #0]
 80010d0:	b292      	uxth	r2, r2
 80010d2:	801a      	strh	r2, [r3, #0]
    SPI2->CR2 &= ~0x0F00; // Clear CR2 Register
 80010d4:	4b13      	ldr	r3, [pc, #76]	; (8001124 <lcd_init+0x284>)
 80010d6:	889b      	ldrh	r3, [r3, #4]
 80010d8:	b29b      	uxth	r3, r3
 80010da:	4a12      	ldr	r2, [pc, #72]	; (8001124 <lcd_init+0x284>)
 80010dc:	f423 6370 	bic.w	r3, r3, #3840	; 0xf00
 80010e0:	b29b      	uxth	r3, r3
 80010e2:	8093      	strh	r3, [r2, #4]
    SPI2->CR2 |= 0x0700; // Set Number of Bits (0x0300 - 4, 0x0400 - 5, 0x0500 - 6, ...);
 80010e4:	4b0f      	ldr	r3, [pc, #60]	; (8001124 <lcd_init+0x284>)
 80010e6:	889b      	ldrh	r3, [r3, #4]
 80010e8:	b29b      	uxth	r3, r3
 80010ea:	4a0e      	ldr	r2, [pc, #56]	; (8001124 <lcd_init+0x284>)
 80010ec:	f443 63e0 	orr.w	r3, r3, #1792	; 0x700
 80010f0:	b29b      	uxth	r3, r3
 80010f2:	8093      	strh	r3, [r2, #4]
    SPI2->I2SCFGR &= ~0x0800; // Disable I2S
 80010f4:	4b0b      	ldr	r3, [pc, #44]	; (8001124 <lcd_init+0x284>)
 80010f6:	8b9b      	ldrh	r3, [r3, #28]
 80010f8:	b29b      	uxth	r3, r3
 80010fa:	4a0a      	ldr	r2, [pc, #40]	; (8001124 <lcd_init+0x284>)
 80010fc:	f423 6300 	bic.w	r3, r3, #2048	; 0x800
 8001100:	b29b      	uxth	r3, r3
 8001102:	8393      	strh	r3, [r2, #28]
    SPI2->CRCPR = 7; // Set CRC polynomial order
 8001104:	4b07      	ldr	r3, [pc, #28]	; (8001124 <lcd_init+0x284>)
 8001106:	2207      	movs	r2, #7
 8001108:	821a      	strh	r2, [r3, #16]
    SPI2->CR2 &= ~0x1000;
 800110a:	4b06      	ldr	r3, [pc, #24]	; (8001124 <lcd_init+0x284>)
 800110c:	889b      	ldrh	r3, [r3, #4]
 800110e:	b29b      	uxth	r3, r3
 8001110:	4a04      	ldr	r2, [pc, #16]	; (8001124 <lcd_init+0x284>)
 8001112:	f423 5380 	bic.w	r3, r3, #4096	; 0x1000
 8001116:	b29b      	uxth	r3, r3
 8001118:	e006      	b.n	8001128 <lcd_init+0x288>
 800111a:	bf00      	nop
 800111c:	40021000 	.word	0x40021000
 8001120:	48000400 	.word	0x48000400
 8001124:	40003800 	.word	0x40003800
 8001128:	8093      	strh	r3, [r2, #4]
    SPI2->CR2 |= 0x1000; // Configure RXFIFO return at (0x0000 - Half-full (16 bits), 0x1000 - Quarter-full (8 bits))
 800112a:	4b0a      	ldr	r3, [pc, #40]	; (8001154 <lcd_init+0x2b4>)
 800112c:	889b      	ldrh	r3, [r3, #4]
 800112e:	b29b      	uxth	r3, r3
 8001130:	4a08      	ldr	r2, [pc, #32]	; (8001154 <lcd_init+0x2b4>)
 8001132:	f443 5380 	orr.w	r3, r3, #4096	; 0x1000
 8001136:	b29b      	uxth	r3, r3
 8001138:	8093      	strh	r3, [r2, #4]
    SPI2->CR1 |= 0x0040; // Enable SPI2
 800113a:	4b06      	ldr	r3, [pc, #24]	; (8001154 <lcd_init+0x2b4>)
 800113c:	881b      	ldrh	r3, [r3, #0]
 800113e:	b29b      	uxth	r3, r3
 8001140:	4a04      	ldr	r2, [pc, #16]	; (8001154 <lcd_init+0x2b4>)
 8001142:	f043 0340 	orr.w	r3, r3, #64	; 0x40
 8001146:	b29b      	uxth	r3, r3
 8001148:	8013      	strh	r3, [r2, #0]

    lcd_reset();
 800114a:	f7ff fe39 	bl	8000dc0 <lcd_reset>
}
 800114e:	bf00      	nop
 8001150:	bd80      	pop	{r7, pc}
 8001152:	bf00      	nop
 8001154:	40003800 	.word	0x40003800

08001158 <clrscr>:
#define ESC 0x1B

#include "ansi.h"


void clrscr() {
 8001158:	b580      	push	{r7, lr}
 800115a:	af00      	add	r7, sp, #0
    // \x1B[2J  -> Clear entire screen
    // \x1B[H   -> Move cursor to home position (0,0)
    printf("\x1B[2J\x1B[H");
 800115c:	4802      	ldr	r0, [pc, #8]	; (8001168 <clrscr+0x10>)
 800115e:	f002 fa7f 	bl	8003660 <iprintf>
}
 8001162:	bf00      	nop
 8001164:	bd80      	pop	{r7, pc}
 8001166:	bf00      	nop
 8001168:	08004d6c 	.word	0x08004d6c

0800116c <gotoxy>:

void clreol(){
	printf("\x1B[K");
}

void gotoxy(uint8_t x, uint8_t y){
 800116c:	b580      	push	{r7, lr}
 800116e:	b082      	sub	sp, #8
 8001170:	af00      	add	r7, sp, #0
 8001172:	4603      	mov	r3, r0
 8001174:	460a      	mov	r2, r1
 8001176:	71fb      	strb	r3, [r7, #7]
 8001178:	4613      	mov	r3, r2
 800117a:	71bb      	strb	r3, [r7, #6]
	printf("\x1B[%d;%dH", y, x);
 800117c:	79bb      	ldrb	r3, [r7, #6]
 800117e:	79fa      	ldrb	r2, [r7, #7]
 8001180:	4619      	mov	r1, r3
 8001182:	4803      	ldr	r0, [pc, #12]	; (8001190 <gotoxy+0x24>)
 8001184:	f002 fa6c 	bl	8003660 <iprintf>
}
 8001188:	bf00      	nop
 800118a:	3708      	adds	r7, #8
 800118c:	46bd      	mov	sp, r7
 800118e:	bd80      	pop	{r7, pc}
 8001190:	08004d78 	.word	0x08004d78

08001194 <asteroid_push_buffer>:
	    {'(', ' ', ' ', ' ', ' ', ' ', ' ', '*', ')'},
	    {' ', '\\', ' ', ' ', '_', ' ', ' ', '/', ' '},
	    {' ', ' ', '\'', '-', '-', '-', '\'', ' ', ' '}
	};

void asteroid_push_buffer(uint8_t buffer[][SCREEN_COLS], asteroid ast){
 8001194:	b480      	push	{r7}
 8001196:	b089      	sub	sp, #36	; 0x24
 8001198:	af00      	add	r7, sp, #0
 800119a:	60f8      	str	r0, [r7, #12]
 800119c:	4638      	mov	r0, r7
 800119e:	e880 000e 	stmia.w	r0, {r1, r2, r3}
	if(ast.alive == 1){
 80011a2:	7a3b      	ldrb	r3, [r7, #8]
 80011a4:	2b01      	cmp	r3, #1
 80011a6:	d14a      	bne.n	800123e <asteroid_push_buffer+0xaa>
		for(int i = 0; i < 7; i++){
 80011a8:	2300      	movs	r3, #0
 80011aa:	61fb      	str	r3, [r7, #28]
 80011ac:	e044      	b.n	8001238 <asteroid_push_buffer+0xa4>
			for(int j = 0; j < 9; j++){
 80011ae:	2300      	movs	r3, #0
 80011b0:	61bb      	str	r3, [r7, #24]
 80011b2:	e03b      	b.n	800122c <asteroid_push_buffer+0x98>
				int ty = ast.y - i;
 80011b4:	887b      	ldrh	r3, [r7, #2]
 80011b6:	461a      	mov	r2, r3
 80011b8:	69fb      	ldr	r3, [r7, #28]
 80011ba:	1ad3      	subs	r3, r2, r3
 80011bc:	617b      	str	r3, [r7, #20]
				int tx = ast.x + j;
 80011be:	883b      	ldrh	r3, [r7, #0]
 80011c0:	461a      	mov	r2, r3
 80011c2:	69bb      	ldr	r3, [r7, #24]
 80011c4:	4413      	add	r3, r2
 80011c6:	613b      	str	r3, [r7, #16]
				if(ty >= 0 && ty < SCREEN_ROWS && tx >= 0 && tx < SCREEN_COLS) {
 80011c8:	697b      	ldr	r3, [r7, #20]
 80011ca:	2b00      	cmp	r3, #0
 80011cc:	db2b      	blt.n	8001226 <asteroid_push_buffer+0x92>
 80011ce:	697b      	ldr	r3, [r7, #20]
 80011d0:	2b27      	cmp	r3, #39	; 0x27
 80011d2:	dc28      	bgt.n	8001226 <asteroid_push_buffer+0x92>
 80011d4:	693b      	ldr	r3, [r7, #16]
 80011d6:	2b00      	cmp	r3, #0
 80011d8:	db25      	blt.n	8001226 <asteroid_push_buffer+0x92>
 80011da:	693b      	ldr	r3, [r7, #16]
 80011dc:	2b3b      	cmp	r3, #59	; 0x3b
 80011de:	dc22      	bgt.n	8001226 <asteroid_push_buffer+0x92>
					if (asteroid_sprite[6 - i][j] != ' ') {
 80011e0:	69fb      	ldr	r3, [r7, #28]
 80011e2:	f1c3 0206 	rsb	r2, r3, #6
 80011e6:	4919      	ldr	r1, [pc, #100]	; (800124c <asteroid_push_buffer+0xb8>)
 80011e8:	4613      	mov	r3, r2
 80011ea:	00db      	lsls	r3, r3, #3
 80011ec:	4413      	add	r3, r2
 80011ee:	18ca      	adds	r2, r1, r3
 80011f0:	69bb      	ldr	r3, [r7, #24]
 80011f2:	4413      	add	r3, r2
 80011f4:	781b      	ldrb	r3, [r3, #0]
 80011f6:	2b20      	cmp	r3, #32
 80011f8:	d015      	beq.n	8001226 <asteroid_push_buffer+0x92>
						buffer[ty][tx] = asteroid_sprite[6 - i][j];
 80011fa:	69fb      	ldr	r3, [r7, #28]
 80011fc:	f1c3 0206 	rsb	r2, r3, #6
 8001200:	6979      	ldr	r1, [r7, #20]
 8001202:	460b      	mov	r3, r1
 8001204:	011b      	lsls	r3, r3, #4
 8001206:	1a5b      	subs	r3, r3, r1
 8001208:	009b      	lsls	r3, r3, #2
 800120a:	4619      	mov	r1, r3
 800120c:	68fb      	ldr	r3, [r7, #12]
 800120e:	4419      	add	r1, r3
 8001210:	480e      	ldr	r0, [pc, #56]	; (800124c <asteroid_push_buffer+0xb8>)
 8001212:	4613      	mov	r3, r2
 8001214:	00db      	lsls	r3, r3, #3
 8001216:	4413      	add	r3, r2
 8001218:	18c2      	adds	r2, r0, r3
 800121a:	69bb      	ldr	r3, [r7, #24]
 800121c:	4413      	add	r3, r2
 800121e:	781a      	ldrb	r2, [r3, #0]
 8001220:	693b      	ldr	r3, [r7, #16]
 8001222:	440b      	add	r3, r1
 8001224:	701a      	strb	r2, [r3, #0]
			for(int j = 0; j < 9; j++){
 8001226:	69bb      	ldr	r3, [r7, #24]
 8001228:	3301      	adds	r3, #1
 800122a:	61bb      	str	r3, [r7, #24]
 800122c:	69bb      	ldr	r3, [r7, #24]
 800122e:	2b08      	cmp	r3, #8
 8001230:	ddc0      	ble.n	80011b4 <asteroid_push_buffer+0x20>
		for(int i = 0; i < 7; i++){
 8001232:	69fb      	ldr	r3, [r7, #28]
 8001234:	3301      	adds	r3, #1
 8001236:	61fb      	str	r3, [r7, #28]
 8001238:	69fb      	ldr	r3, [r7, #28]
 800123a:	2b06      	cmp	r3, #6
 800123c:	ddb7      	ble.n	80011ae <asteroid_push_buffer+0x1a>
					}
				}
			}
		}
	}
}
 800123e:	bf00      	nop
 8001240:	3724      	adds	r7, #36	; 0x24
 8001242:	46bd      	mov	sp, r7
 8001244:	f85d 7b04 	ldr.w	r7, [sp], #4
 8001248:	4770      	bx	lr
 800124a:	bf00      	nop
 800124c:	080051a0 	.word	0x080051a0

08001250 <asteroid_update_pos>:

void asteroid_update_pos(asteroid *ast){
 8001250:	b480      	push	{r7}
 8001252:	b083      	sub	sp, #12
 8001254:	af00      	add	r7, sp, #0
 8001256:	6078      	str	r0, [r7, #4]
	ast->x += ASTEROID_SPEED;
 8001258:	687b      	ldr	r3, [r7, #4]
 800125a:	881b      	ldrh	r3, [r3, #0]
 800125c:	3302      	adds	r3, #2
 800125e:	b29a      	uxth	r2, r3
 8001260:	687b      	ldr	r3, [r7, #4]
 8001262:	801a      	strh	r2, [r3, #0]
}
 8001264:	bf00      	nop
 8001266:	370c      	adds	r7, #12
 8001268:	46bd      	mov	sp, r7
 800126a:	f85d 7b04 	ldr.w	r7, [sp], #4
 800126e:	4770      	bx	lr

08001270 <asteroid_gravity>:

void asteroid_gravity(Bullet bullets[], asteroid ast){
 8001270:	b580      	push	{r7, lr}
 8001272:	b088      	sub	sp, #32
 8001274:	af00      	add	r7, sp, #0
 8001276:	60f8      	str	r0, [r7, #12]
 8001278:	4638      	mov	r0, r7
 800127a:	e880 000e 	stmia.w	r0, {r1, r2, r3}
	for(uint8_t i = 0; i < BULLET_POOL_SIZE; i++){
 800127e:	2300      	movs	r3, #0
 8001280:	77fb      	strb	r3, [r7, #31]
 8001282:	e055      	b.n	8001330 <asteroid_gravity+0xc0>
		Bullet *b = &bullets[i];
 8001284:	7ffa      	ldrb	r2, [r7, #31]
 8001286:	4613      	mov	r3, r2
 8001288:	009b      	lsls	r3, r3, #2
 800128a:	4413      	add	r3, r2
 800128c:	009b      	lsls	r3, r3, #2
 800128e:	461a      	mov	r2, r3
 8001290:	68fb      	ldr	r3, [r7, #12]
 8001292:	4413      	add	r3, r2
 8001294:	61bb      	str	r3, [r7, #24]
		if (!b->active) continue;
 8001296:	69bb      	ldr	r3, [r7, #24]
 8001298:	7c1b      	ldrb	r3, [r3, #16]
 800129a:	f083 0301 	eor.w	r3, r3, #1
 800129e:	b2db      	uxtb	r3, r3
 80012a0:	2b00      	cmp	r3, #0
 80012a2:	d141      	bne.n	8001328 <asteroid_gravity+0xb8>

		int16_t bx = b->x >> BULLET_FP_SHIFT;
 80012a4:	69bb      	ldr	r3, [r7, #24]
 80012a6:	681b      	ldr	r3, [r3, #0]
 80012a8:	121b      	asrs	r3, r3, #8
 80012aa:	82fb      	strh	r3, [r7, #22]
		int16_t by = b->y >> BULLET_FP_SHIFT;
 80012ac:	69bb      	ldr	r3, [r7, #24]
 80012ae:	685b      	ldr	r3, [r3, #4]
 80012b0:	121b      	asrs	r3, r3, #8
 80012b2:	82bb      	strh	r3, [r7, #20]

		int16_t dist = get_approx_dist(by, by, ast.x, ast.y);
 80012b4:	f9b7 0014 	ldrsh.w	r0, [r7, #20]
 80012b8:	f9b7 1014 	ldrsh.w	r1, [r7, #20]
 80012bc:	883b      	ldrh	r3, [r7, #0]
 80012be:	461a      	mov	r2, r3
 80012c0:	887b      	ldrh	r3, [r7, #2]
 80012c2:	f000 f83d 	bl	8001340 <get_approx_dist>
 80012c6:	4603      	mov	r3, r0
 80012c8:	827b      	strh	r3, [r7, #18]
		b->vx += 10 * ((ast.x + (ast.sx >> 1)) - bx) / (dist);
 80012ca:	69bb      	ldr	r3, [r7, #24]
 80012cc:	6899      	ldr	r1, [r3, #8]
 80012ce:	883b      	ldrh	r3, [r7, #0]
 80012d0:	461a      	mov	r2, r3
 80012d2:	88bb      	ldrh	r3, [r7, #4]
 80012d4:	085b      	lsrs	r3, r3, #1
 80012d6:	b29b      	uxth	r3, r3
 80012d8:	441a      	add	r2, r3
 80012da:	f9b7 3016 	ldrsh.w	r3, [r7, #22]
 80012de:	1ad2      	subs	r2, r2, r3
 80012e0:	4613      	mov	r3, r2
 80012e2:	009b      	lsls	r3, r3, #2
 80012e4:	4413      	add	r3, r2
 80012e6:	005b      	lsls	r3, r3, #1
 80012e8:	461a      	mov	r2, r3
 80012ea:	f9b7 3012 	ldrsh.w	r3, [r7, #18]
 80012ee:	fb92 f3f3 	sdiv	r3, r2, r3
 80012f2:	18ca      	adds	r2, r1, r3
 80012f4:	69bb      	ldr	r3, [r7, #24]
 80012f6:	609a      	str	r2, [r3, #8]
		b->vy += 10 * ((ast.y + (ast.sy >> 1)) - by) / (dist);
 80012f8:	69bb      	ldr	r3, [r7, #24]
 80012fa:	68d9      	ldr	r1, [r3, #12]
 80012fc:	887b      	ldrh	r3, [r7, #2]
 80012fe:	461a      	mov	r2, r3
 8001300:	88fb      	ldrh	r3, [r7, #6]
 8001302:	085b      	lsrs	r3, r3, #1
 8001304:	b29b      	uxth	r3, r3
 8001306:	441a      	add	r2, r3
 8001308:	f9b7 3014 	ldrsh.w	r3, [r7, #20]
 800130c:	1ad2      	subs	r2, r2, r3
 800130e:	4613      	mov	r3, r2
 8001310:	009b      	lsls	r3, r3, #2
 8001312:	4413      	add	r3, r2
 8001314:	005b      	lsls	r3, r3, #1
 8001316:	461a      	mov	r2, r3
 8001318:	f9b7 3012 	ldrsh.w	r3, [r7, #18]
 800131c:	fb92 f3f3 	sdiv	r3, r2, r3
 8001320:	18ca      	adds	r2, r1, r3
 8001322:	69bb      	ldr	r3, [r7, #24]
 8001324:	60da      	str	r2, [r3, #12]
 8001326:	e000      	b.n	800132a <asteroid_gravity+0xba>
		if (!b->active) continue;
 8001328:	bf00      	nop
	for(uint8_t i = 0; i < BULLET_POOL_SIZE; i++){
 800132a:	7ffb      	ldrb	r3, [r7, #31]
 800132c:	3301      	adds	r3, #1
 800132e:	77fb      	strb	r3, [r7, #31]
 8001330:	7ffb      	ldrb	r3, [r7, #31]
 8001332:	2b31      	cmp	r3, #49	; 0x31
 8001334:	d9a6      	bls.n	8001284 <asteroid_gravity+0x14>
	}
}
 8001336:	bf00      	nop
 8001338:	bf00      	nop
 800133a:	3720      	adds	r7, #32
 800133c:	46bd      	mov	sp, r7
 800133e:	bd80      	pop	{r7, pc}

08001340 <get_approx_dist>:

int32_t get_approx_dist(int32_t x1, int32_t y1, int32_t x2, int32_t y2){
 8001340:	b480      	push	{r7}
 8001342:	b089      	sub	sp, #36	; 0x24
 8001344:	af00      	add	r7, sp, #0
 8001346:	60f8      	str	r0, [r7, #12]
 8001348:	60b9      	str	r1, [r7, #8]
 800134a:	607a      	str	r2, [r7, #4]
 800134c:	603b      	str	r3, [r7, #0]
    int32_t dx = x1 - x2;
 800134e:	68fa      	ldr	r2, [r7, #12]
 8001350:	687b      	ldr	r3, [r7, #4]
 8001352:	1ad3      	subs	r3, r2, r3
 8001354:	61fb      	str	r3, [r7, #28]
    int32_t dy = y1 - y2;
 8001356:	68ba      	ldr	r2, [r7, #8]
 8001358:	683b      	ldr	r3, [r7, #0]
 800135a:	1ad3      	subs	r3, r2, r3
 800135c:	61bb      	str	r3, [r7, #24]

    // Absolute values
    if (dx < 0) dx = -dx;
 800135e:	69fb      	ldr	r3, [r7, #28]
 8001360:	2b00      	cmp	r3, #0
 8001362:	da02      	bge.n	800136a <get_approx_dist+0x2a>
 8001364:	69fb      	ldr	r3, [r7, #28]
 8001366:	425b      	negs	r3, r3
 8001368:	61fb      	str	r3, [r7, #28]
    if (dy < 0) dy = -dy;
 800136a:	69bb      	ldr	r3, [r7, #24]
 800136c:	2b00      	cmp	r3, #0
 800136e:	da02      	bge.n	8001376 <get_approx_dist+0x36>
 8001370:	69bb      	ldr	r3, [r7, #24]
 8001372:	425b      	negs	r3, r3
 8001374:	61bb      	str	r3, [r7, #24]

    int32_t max_v, min_v;
    if (dx > dy) {
 8001376:	69fa      	ldr	r2, [r7, #28]
 8001378:	69bb      	ldr	r3, [r7, #24]
 800137a:	429a      	cmp	r2, r3
 800137c:	dd04      	ble.n	8001388 <get_approx_dist+0x48>
        max_v = dx;
 800137e:	69fb      	ldr	r3, [r7, #28]
 8001380:	617b      	str	r3, [r7, #20]
        min_v = dy;
 8001382:	69bb      	ldr	r3, [r7, #24]
 8001384:	613b      	str	r3, [r7, #16]
 8001386:	e003      	b.n	8001390 <get_approx_dist+0x50>
    } else {
        max_v = dy;
 8001388:	69bb      	ldr	r3, [r7, #24]
 800138a:	617b      	str	r3, [r7, #20]
        min_v = dx;
 800138c:	69fb      	ldr	r3, [r7, #28]
 800138e:	613b      	str	r3, [r7, #16]
    }

    // Makes use of Alpha Max plus Beta Min for dist approximation: Distance = 1.0 * max + 0.375 * min
    return max_v + (min_v >> 2) + (min_v >> 3);
 8001390:	693b      	ldr	r3, [r7, #16]
 8001392:	109a      	asrs	r2, r3, #2
 8001394:	697b      	ldr	r3, [r7, #20]
 8001396:	441a      	add	r2, r3
 8001398:	693b      	ldr	r3, [r7, #16]
 800139a:	10db      	asrs	r3, r3, #3
 800139c:	4413      	add	r3, r2
}
 800139e:	4618      	mov	r0, r3
 80013a0:	3724      	adds	r7, #36	; 0x24
 80013a2:	46bd      	mov	sp, r7
 80013a4:	f85d 7b04 	ldr.w	r7, [sp], #4
 80013a8:	4770      	bx	lr

080013aa <asteroid_enemies_collision>:

void asteroid_enemies_collision(asteroid *ast, enemy enemy_pool[MAX_ENEMIES]){
 80013aa:	b480      	push	{r7}
 80013ac:	b085      	sub	sp, #20
 80013ae:	af00      	add	r7, sp, #0
 80013b0:	6078      	str	r0, [r7, #4]
 80013b2:	6039      	str	r1, [r7, #0]
	for(int e = 0; e < MAX_ENEMIES; e++){
 80013b4:	2300      	movs	r3, #0
 80013b6:	60fb      	str	r3, [r7, #12]
 80013b8:	e055      	b.n	8001466 <asteroid_enemies_collision+0xbc>
		if(enemy_pool[e].alive == 1){
 80013ba:	68fa      	ldr	r2, [r7, #12]
 80013bc:	4613      	mov	r3, r2
 80013be:	009b      	lsls	r3, r3, #2
 80013c0:	4413      	add	r3, r2
 80013c2:	005b      	lsls	r3, r3, #1
 80013c4:	461a      	mov	r2, r3
 80013c6:	683b      	ldr	r3, [r7, #0]
 80013c8:	4413      	add	r3, r2
 80013ca:	79db      	ldrb	r3, [r3, #7]
 80013cc:	2b01      	cmp	r3, #1
 80013ce:	d147      	bne.n	8001460 <asteroid_enemies_collision+0xb6>
			if((enemy_pool[e].x) > ast->x && (enemy_pool[e].x) < ast->x + ast->sx){
 80013d0:	68fa      	ldr	r2, [r7, #12]
 80013d2:	4613      	mov	r3, r2
 80013d4:	009b      	lsls	r3, r3, #2
 80013d6:	4413      	add	r3, r2
 80013d8:	005b      	lsls	r3, r3, #1
 80013da:	461a      	mov	r2, r3
 80013dc:	683b      	ldr	r3, [r7, #0]
 80013de:	4413      	add	r3, r2
 80013e0:	881a      	ldrh	r2, [r3, #0]
 80013e2:	687b      	ldr	r3, [r7, #4]
 80013e4:	881b      	ldrh	r3, [r3, #0]
 80013e6:	429a      	cmp	r2, r3
 80013e8:	d93a      	bls.n	8001460 <asteroid_enemies_collision+0xb6>
 80013ea:	68fa      	ldr	r2, [r7, #12]
 80013ec:	4613      	mov	r3, r2
 80013ee:	009b      	lsls	r3, r3, #2
 80013f0:	4413      	add	r3, r2
 80013f2:	005b      	lsls	r3, r3, #1
 80013f4:	461a      	mov	r2, r3
 80013f6:	683b      	ldr	r3, [r7, #0]
 80013f8:	4413      	add	r3, r2
 80013fa:	881b      	ldrh	r3, [r3, #0]
 80013fc:	461a      	mov	r2, r3
 80013fe:	687b      	ldr	r3, [r7, #4]
 8001400:	881b      	ldrh	r3, [r3, #0]
 8001402:	4619      	mov	r1, r3
 8001404:	687b      	ldr	r3, [r7, #4]
 8001406:	889b      	ldrh	r3, [r3, #4]
 8001408:	440b      	add	r3, r1
 800140a:	429a      	cmp	r2, r3
 800140c:	da28      	bge.n	8001460 <asteroid_enemies_collision+0xb6>
				if((enemy_pool[e].y) < ast->y && (enemy_pool[e].y) > ast->y - ast->sy){
 800140e:	68fa      	ldr	r2, [r7, #12]
 8001410:	4613      	mov	r3, r2
 8001412:	009b      	lsls	r3, r3, #2
 8001414:	4413      	add	r3, r2
 8001416:	005b      	lsls	r3, r3, #1
 8001418:	461a      	mov	r2, r3
 800141a:	683b      	ldr	r3, [r7, #0]
 800141c:	4413      	add	r3, r2
 800141e:	885a      	ldrh	r2, [r3, #2]
 8001420:	687b      	ldr	r3, [r7, #4]
 8001422:	885b      	ldrh	r3, [r3, #2]
 8001424:	429a      	cmp	r2, r3
 8001426:	d21b      	bcs.n	8001460 <asteroid_enemies_collision+0xb6>
 8001428:	68fa      	ldr	r2, [r7, #12]
 800142a:	4613      	mov	r3, r2
 800142c:	009b      	lsls	r3, r3, #2
 800142e:	4413      	add	r3, r2
 8001430:	005b      	lsls	r3, r3, #1
 8001432:	461a      	mov	r2, r3
 8001434:	683b      	ldr	r3, [r7, #0]
 8001436:	4413      	add	r3, r2
 8001438:	885b      	ldrh	r3, [r3, #2]
 800143a:	461a      	mov	r2, r3
 800143c:	687b      	ldr	r3, [r7, #4]
 800143e:	885b      	ldrh	r3, [r3, #2]
 8001440:	4619      	mov	r1, r3
 8001442:	687b      	ldr	r3, [r7, #4]
 8001444:	88db      	ldrh	r3, [r3, #6]
 8001446:	1acb      	subs	r3, r1, r3
 8001448:	429a      	cmp	r2, r3
 800144a:	dd09      	ble.n	8001460 <asteroid_enemies_collision+0xb6>
					enemy_pool[e].alive =0;
 800144c:	68fa      	ldr	r2, [r7, #12]
 800144e:	4613      	mov	r3, r2
 8001450:	009b      	lsls	r3, r3, #2
 8001452:	4413      	add	r3, r2
 8001454:	005b      	lsls	r3, r3, #1
 8001456:	461a      	mov	r2, r3
 8001458:	683b      	ldr	r3, [r7, #0]
 800145a:	4413      	add	r3, r2
 800145c:	2200      	movs	r2, #0
 800145e:	71da      	strb	r2, [r3, #7]
	for(int e = 0; e < MAX_ENEMIES; e++){
 8001460:	68fb      	ldr	r3, [r7, #12]
 8001462:	3301      	adds	r3, #1
 8001464:	60fb      	str	r3, [r7, #12]
 8001466:	68fb      	ldr	r3, [r7, #12]
 8001468:	2b04      	cmp	r3, #4
 800146a:	dda6      	ble.n	80013ba <asteroid_enemies_collision+0x10>
				}
			}
		}
	}
}
 800146c:	bf00      	nop
 800146e:	bf00      	nop
 8001470:	3714      	adds	r7, #20
 8001472:	46bd      	mov	sp, r7
 8001474:	f85d 7b04 	ldr.w	r7, [sp], #4
 8001478:	4770      	bx	lr
	...

0800147c <bullets_get_pool>:
static int g_powerup_ticks_left = 0;
static int g_test_hit_counter = 0;
static Bullet bullets[BULLET_POOL_SIZE];

Bullet* bullets_get_pool(void)
{
 800147c:	b480      	push	{r7}
 800147e:	af00      	add	r7, sp, #0
    return bullets;
 8001480:	4b02      	ldr	r3, [pc, #8]	; (800148c <bullets_get_pool+0x10>)
}
 8001482:	4618      	mov	r0, r3
 8001484:	46bd      	mov	sp, r7
 8001486:	f85d 7b04 	ldr.w	r7, [sp], #4
 800148a:	4770      	bx	lr
 800148c:	200001e8 	.word	0x200001e8

08001490 <bullets_get_count>:

int bullets_get_count(void)
{
 8001490:	b480      	push	{r7}
 8001492:	af00      	add	r7, sp, #0
    return BULLET_POOL_SIZE;
 8001494:	2332      	movs	r3, #50	; 0x32
}
 8001496:	4618      	mov	r0, r3
 8001498:	46bd      	mov	sp, r7
 800149a:	f85d 7b04 	ldr.w	r7, [sp], #4
 800149e:	4770      	bx	lr

080014a0 <find_inactive>:


static Bullet* find_inactive(Bullet bullets[], int count)
{
 80014a0:	b480      	push	{r7}
 80014a2:	b085      	sub	sp, #20
 80014a4:	af00      	add	r7, sp, #0
 80014a6:	6078      	str	r0, [r7, #4]
 80014a8:	6039      	str	r1, [r7, #0]
    for (int i = 0; i < count; i++)
 80014aa:	2300      	movs	r3, #0
 80014ac:	60fb      	str	r3, [r7, #12]
 80014ae:	e019      	b.n	80014e4 <find_inactive+0x44>
    {
        if (!bullets[i].active)
 80014b0:	68fa      	ldr	r2, [r7, #12]
 80014b2:	4613      	mov	r3, r2
 80014b4:	009b      	lsls	r3, r3, #2
 80014b6:	4413      	add	r3, r2
 80014b8:	009b      	lsls	r3, r3, #2
 80014ba:	461a      	mov	r2, r3
 80014bc:	687b      	ldr	r3, [r7, #4]
 80014be:	4413      	add	r3, r2
 80014c0:	7c1b      	ldrb	r3, [r3, #16]
 80014c2:	f083 0301 	eor.w	r3, r3, #1
 80014c6:	b2db      	uxtb	r3, r3
 80014c8:	2b00      	cmp	r3, #0
 80014ca:	d008      	beq.n	80014de <find_inactive+0x3e>
            return &bullets[i];
 80014cc:	68fa      	ldr	r2, [r7, #12]
 80014ce:	4613      	mov	r3, r2
 80014d0:	009b      	lsls	r3, r3, #2
 80014d2:	4413      	add	r3, r2
 80014d4:	009b      	lsls	r3, r3, #2
 80014d6:	461a      	mov	r2, r3
 80014d8:	687b      	ldr	r3, [r7, #4]
 80014da:	4413      	add	r3, r2
 80014dc:	e007      	b.n	80014ee <find_inactive+0x4e>
    for (int i = 0; i < count; i++)
 80014de:	68fb      	ldr	r3, [r7, #12]
 80014e0:	3301      	adds	r3, #1
 80014e2:	60fb      	str	r3, [r7, #12]
 80014e4:	68fa      	ldr	r2, [r7, #12]
 80014e6:	683b      	ldr	r3, [r7, #0]
 80014e8:	429a      	cmp	r2, r3
 80014ea:	dbe1      	blt.n	80014b0 <find_inactive+0x10>
    }
    return 0;
 80014ec:	2300      	movs	r3, #0
}
 80014ee:	4618      	mov	r0, r3
 80014f0:	3714      	adds	r7, #20
 80014f2:	46bd      	mov	sp, r7
 80014f4:	f85d 7b04 	ldr.w	r7, [sp], #4
 80014f8:	4770      	bx	lr

080014fa <bullets_init>:

void bullets_init(Bullet bullets[], int count)
{
 80014fa:	b480      	push	{r7}
 80014fc:	b085      	sub	sp, #20
 80014fe:	af00      	add	r7, sp, #0
 8001500:	6078      	str	r0, [r7, #4]
 8001502:	6039      	str	r1, [r7, #0]
    for (int i = 0; i < count; i++)
 8001504:	2300      	movs	r3, #0
 8001506:	60fb      	str	r3, [r7, #12]
 8001508:	e034      	b.n	8001574 <bullets_init+0x7a>
    {
        bullets[i].x = 0;
 800150a:	68fa      	ldr	r2, [r7, #12]
 800150c:	4613      	mov	r3, r2
 800150e:	009b      	lsls	r3, r3, #2
 8001510:	4413      	add	r3, r2
 8001512:	009b      	lsls	r3, r3, #2
 8001514:	461a      	mov	r2, r3
 8001516:	687b      	ldr	r3, [r7, #4]
 8001518:	4413      	add	r3, r2
 800151a:	2200      	movs	r2, #0
 800151c:	601a      	str	r2, [r3, #0]
        bullets[i].y = 0;
 800151e:	68fa      	ldr	r2, [r7, #12]
 8001520:	4613      	mov	r3, r2
 8001522:	009b      	lsls	r3, r3, #2
 8001524:	4413      	add	r3, r2
 8001526:	009b      	lsls	r3, r3, #2
 8001528:	461a      	mov	r2, r3
 800152a:	687b      	ldr	r3, [r7, #4]
 800152c:	4413      	add	r3, r2
 800152e:	2200      	movs	r2, #0
 8001530:	605a      	str	r2, [r3, #4]
        bullets[i].vx = 0;
 8001532:	68fa      	ldr	r2, [r7, #12]
 8001534:	4613      	mov	r3, r2
 8001536:	009b      	lsls	r3, r3, #2
 8001538:	4413      	add	r3, r2
 800153a:	009b      	lsls	r3, r3, #2
 800153c:	461a      	mov	r2, r3
 800153e:	687b      	ldr	r3, [r7, #4]
 8001540:	4413      	add	r3, r2
 8001542:	2200      	movs	r2, #0
 8001544:	609a      	str	r2, [r3, #8]
        bullets[i].vy = 0;
 8001546:	68fa      	ldr	r2, [r7, #12]
 8001548:	4613      	mov	r3, r2
 800154a:	009b      	lsls	r3, r3, #2
 800154c:	4413      	add	r3, r2
 800154e:	009b      	lsls	r3, r3, #2
 8001550:	461a      	mov	r2, r3
 8001552:	687b      	ldr	r3, [r7, #4]
 8001554:	4413      	add	r3, r2
 8001556:	2200      	movs	r2, #0
 8001558:	60da      	str	r2, [r3, #12]
        bullets[i].active = false;
 800155a:	68fa      	ldr	r2, [r7, #12]
 800155c:	4613      	mov	r3, r2
 800155e:	009b      	lsls	r3, r3, #2
 8001560:	4413      	add	r3, r2
 8001562:	009b      	lsls	r3, r3, #2
 8001564:	461a      	mov	r2, r3
 8001566:	687b      	ldr	r3, [r7, #4]
 8001568:	4413      	add	r3, r2
 800156a:	2200      	movs	r2, #0
 800156c:	741a      	strb	r2, [r3, #16]
    for (int i = 0; i < count; i++)
 800156e:	68fb      	ldr	r3, [r7, #12]
 8001570:	3301      	adds	r3, #1
 8001572:	60fb      	str	r3, [r7, #12]
 8001574:	68fa      	ldr	r2, [r7, #12]
 8001576:	683b      	ldr	r3, [r7, #0]
 8001578:	429a      	cmp	r2, r3
 800157a:	dbc6      	blt.n	800150a <bullets_init+0x10>
    }
}
 800157c:	bf00      	nop
 800157e:	bf00      	nop
 8001580:	3714      	adds	r7, #20
 8001582:	46bd      	mov	sp, r7
 8001584:	f85d 7b04 	ldr.w	r7, [sp], #4
 8001588:	4770      	bx	lr

0800158a <bullets_shoot_single>:
void bullets_shoot_single(Bullet bullets[], int count, int x, int y)
{
 800158a:	b580      	push	{r7, lr}
 800158c:	b086      	sub	sp, #24
 800158e:	af00      	add	r7, sp, #0
 8001590:	60f8      	str	r0, [r7, #12]
 8001592:	60b9      	str	r1, [r7, #8]
 8001594:	607a      	str	r2, [r7, #4]
 8001596:	603b      	str	r3, [r7, #0]
    Bullet *b = find_inactive(bullets, count);
 8001598:	68b9      	ldr	r1, [r7, #8]
 800159a:	68f8      	ldr	r0, [r7, #12]
 800159c:	f7ff ff80 	bl	80014a0 <find_inactive>
 80015a0:	6178      	str	r0, [r7, #20]
    if (!b) return;
 80015a2:	697b      	ldr	r3, [r7, #20]
 80015a4:	2b00      	cmp	r3, #0
 80015a6:	d012      	beq.n	80015ce <bullets_shoot_single+0x44>

    b->x = (int32_t)x * BULLET_FP;
 80015a8:	687b      	ldr	r3, [r7, #4]
 80015aa:	021a      	lsls	r2, r3, #8
 80015ac:	697b      	ldr	r3, [r7, #20]
 80015ae:	601a      	str	r2, [r3, #0]
    b->y = (int32_t)y * BULLET_FP;
 80015b0:	683b      	ldr	r3, [r7, #0]
 80015b2:	021a      	lsls	r2, r3, #8
 80015b4:	697b      	ldr	r3, [r7, #20]
 80015b6:	605a      	str	r2, [r3, #4]
    b->vx = 0;
 80015b8:	697b      	ldr	r3, [r7, #20]
 80015ba:	2200      	movs	r2, #0
 80015bc:	609a      	str	r2, [r3, #8]
    b->vy = -1 * BULLET_FP;   // -1 celle pr tick
 80015be:	697b      	ldr	r3, [r7, #20]
 80015c0:	f06f 02ff 	mvn.w	r2, #255	; 0xff
 80015c4:	60da      	str	r2, [r3, #12]
    b->active = true;
 80015c6:	697b      	ldr	r3, [r7, #20]
 80015c8:	2201      	movs	r2, #1
 80015ca:	741a      	strb	r2, [r3, #16]
 80015cc:	e000      	b.n	80015d0 <bullets_shoot_single+0x46>
    if (!b) return;
 80015ce:	bf00      	nop
}
 80015d0:	3718      	adds	r7, #24
 80015d2:	46bd      	mov	sp, r7
 80015d4:	bd80      	pop	{r7, pc}

080015d6 <bullets_shoot_enemy>:
void bullets_shoot_enemy(Bullet bullets[], int count, int x, int y)
{
 80015d6:	b580      	push	{r7, lr}
 80015d8:	b086      	sub	sp, #24
 80015da:	af00      	add	r7, sp, #0
 80015dc:	60f8      	str	r0, [r7, #12]
 80015de:	60b9      	str	r1, [r7, #8]
 80015e0:	607a      	str	r2, [r7, #4]
 80015e2:	603b      	str	r3, [r7, #0]
    Bullet *b = find_inactive(bullets, count);
 80015e4:	68b9      	ldr	r1, [r7, #8]
 80015e6:	68f8      	ldr	r0, [r7, #12]
 80015e8:	f7ff ff5a 	bl	80014a0 <find_inactive>
 80015ec:	6178      	str	r0, [r7, #20]
    if (!b) return;
 80015ee:	697b      	ldr	r3, [r7, #20]
 80015f0:	2b00      	cmp	r3, #0
 80015f2:	d012      	beq.n	800161a <bullets_shoot_enemy+0x44>

    b->x = (int32_t)x * BULLET_FP;
 80015f4:	687b      	ldr	r3, [r7, #4]
 80015f6:	021a      	lsls	r2, r3, #8
 80015f8:	697b      	ldr	r3, [r7, #20]
 80015fa:	601a      	str	r2, [r3, #0]
    b->y = (int32_t)y * BULLET_FP;
 80015fc:	683b      	ldr	r3, [r7, #0]
 80015fe:	021a      	lsls	r2, r3, #8
 8001600:	697b      	ldr	r3, [r7, #20]
 8001602:	605a      	str	r2, [r3, #4]
    b->vx = 0;
 8001604:	697b      	ldr	r3, [r7, #20]
 8001606:	2200      	movs	r2, #0
 8001608:	609a      	str	r2, [r3, #8]
    b->vy = +1 * BULLET_FP;   // enemy: nedad
 800160a:	697b      	ldr	r3, [r7, #20]
 800160c:	f44f 7280 	mov.w	r2, #256	; 0x100
 8001610:	60da      	str	r2, [r3, #12]
    b->active = true;
 8001612:	697b      	ldr	r3, [r7, #20]
 8001614:	2201      	movs	r2, #1
 8001616:	741a      	strb	r2, [r3, #16]
 8001618:	e000      	b.n	800161c <bullets_shoot_enemy+0x46>
    if (!b) return;
 800161a:	bf00      	nop
}
 800161c:	3718      	adds	r7, #24
 800161e:	46bd      	mov	sp, r7
 8001620:	bd80      	pop	{r7, pc}
	...

08001624 <bullets_shoot_spread5>:
void bullets_shoot_spread5(Bullet bullets[], int count, int x, int y)
{
 8001624:	b5b0      	push	{r4, r5, r7, lr}
 8001626:	b090      	sub	sp, #64	; 0x40
 8001628:	af00      	add	r7, sp, #0
 800162a:	60f8      	str	r0, [r7, #12]
 800162c:	60b9      	str	r1, [r7, #8]
 800162e:	607a      	str	r2, [r7, #4]
 8001630:	603b      	str	r3, [r7, #0]

    const int32_t vx[5] = {
 8001632:	4b21      	ldr	r3, [pc, #132]	; (80016b8 <bullets_shoot_spread5+0x94>)
 8001634:	f107 0424 	add.w	r4, r7, #36	; 0x24
 8001638:	461d      	mov	r5, r3
 800163a:	cd0f      	ldmia	r5!, {r0, r1, r2, r3}
 800163c:	c40f      	stmia	r4!, {r0, r1, r2, r3}
 800163e:	682b      	ldr	r3, [r5, #0]
 8001640:	6023      	str	r3, [r4, #0]
        -(BULLET_FP / 4),
        0,
        (BULLET_FP / 4),
        (BULLET_FP / 2)
    };
    const int32_t vy[5] = {
 8001642:	4b1e      	ldr	r3, [pc, #120]	; (80016bc <bullets_shoot_spread5+0x98>)
 8001644:	f107 0410 	add.w	r4, r7, #16
 8001648:	461d      	mov	r5, r3
 800164a:	cd0f      	ldmia	r5!, {r0, r1, r2, r3}
 800164c:	c40f      	stmia	r4!, {r0, r1, r2, r3}
 800164e:	682b      	ldr	r3, [r5, #0]
 8001650:	6023      	str	r3, [r4, #0]
        -BULLET_FP,
        -(BULLET_FP * 9) / 10,
        -(BULLET_FP * 3) / 4
    };

    for (int i = 0; i < 5; i++)
 8001652:	2300      	movs	r3, #0
 8001654:	63fb      	str	r3, [r7, #60]	; 0x3c
 8001656:	e027      	b.n	80016a8 <bullets_shoot_spread5+0x84>
    {
        Bullet *b = find_inactive(bullets, count);
 8001658:	68b9      	ldr	r1, [r7, #8]
 800165a:	68f8      	ldr	r0, [r7, #12]
 800165c:	f7ff ff20 	bl	80014a0 <find_inactive>
 8001660:	63b8      	str	r0, [r7, #56]	; 0x38
        if (!b) return;
 8001662:	6bbb      	ldr	r3, [r7, #56]	; 0x38
 8001664:	2b00      	cmp	r3, #0
 8001666:	d023      	beq.n	80016b0 <bullets_shoot_spread5+0x8c>

        b->x = (int32_t)x * BULLET_FP;
 8001668:	687b      	ldr	r3, [r7, #4]
 800166a:	021a      	lsls	r2, r3, #8
 800166c:	6bbb      	ldr	r3, [r7, #56]	; 0x38
 800166e:	601a      	str	r2, [r3, #0]
        b->y = (int32_t)y * BULLET_FP;
 8001670:	683b      	ldr	r3, [r7, #0]
 8001672:	021a      	lsls	r2, r3, #8
 8001674:	6bbb      	ldr	r3, [r7, #56]	; 0x38
 8001676:	605a      	str	r2, [r3, #4]
        b->vx = vx[i];
 8001678:	6bfb      	ldr	r3, [r7, #60]	; 0x3c
 800167a:	009b      	lsls	r3, r3, #2
 800167c:	f107 0240 	add.w	r2, r7, #64	; 0x40
 8001680:	4413      	add	r3, r2
 8001682:	f853 2c1c 	ldr.w	r2, [r3, #-28]
 8001686:	6bbb      	ldr	r3, [r7, #56]	; 0x38
 8001688:	609a      	str	r2, [r3, #8]
        b->vy = vy[i];
 800168a:	6bfb      	ldr	r3, [r7, #60]	; 0x3c
 800168c:	009b      	lsls	r3, r3, #2
 800168e:	f107 0240 	add.w	r2, r7, #64	; 0x40
 8001692:	4413      	add	r3, r2
 8001694:	f853 2c30 	ldr.w	r2, [r3, #-48]
 8001698:	6bbb      	ldr	r3, [r7, #56]	; 0x38
 800169a:	60da      	str	r2, [r3, #12]
        b->active = true;
 800169c:	6bbb      	ldr	r3, [r7, #56]	; 0x38
 800169e:	2201      	movs	r2, #1
 80016a0:	741a      	strb	r2, [r3, #16]
    for (int i = 0; i < 5; i++)
 80016a2:	6bfb      	ldr	r3, [r7, #60]	; 0x3c
 80016a4:	3301      	adds	r3, #1
 80016a6:	63fb      	str	r3, [r7, #60]	; 0x3c
 80016a8:	6bfb      	ldr	r3, [r7, #60]	; 0x3c
 80016aa:	2b04      	cmp	r3, #4
 80016ac:	ddd4      	ble.n	8001658 <bullets_shoot_spread5+0x34>
 80016ae:	e000      	b.n	80016b2 <bullets_shoot_spread5+0x8e>
        if (!b) return;
 80016b0:	bf00      	nop
    }
}
 80016b2:	3740      	adds	r7, #64	; 0x40
 80016b4:	46bd      	mov	sp, r7
 80016b6:	bdb0      	pop	{r4, r5, r7, pc}
 80016b8:	08004dd4 	.word	0x08004dd4
 80016bc:	08004de8 	.word	0x08004de8

080016c0 <bullets_update>:

void bullets_update(Bullet bullets[], int count)
{
 80016c0:	b480      	push	{r7}
 80016c2:	b087      	sub	sp, #28
 80016c4:	af00      	add	r7, sp, #0
 80016c6:	6078      	str	r0, [r7, #4]
 80016c8:	6039      	str	r1, [r7, #0]
    for (int i = 0; i < count; i++)
 80016ca:	2300      	movs	r3, #0
 80016cc:	617b      	str	r3, [r7, #20]
 80016ce:	e039      	b.n	8001744 <bullets_update+0x84>
    {
        Bullet *b = &bullets[i];
 80016d0:	697a      	ldr	r2, [r7, #20]
 80016d2:	4613      	mov	r3, r2
 80016d4:	009b      	lsls	r3, r3, #2
 80016d6:	4413      	add	r3, r2
 80016d8:	009b      	lsls	r3, r3, #2
 80016da:	461a      	mov	r2, r3
 80016dc:	687b      	ldr	r3, [r7, #4]
 80016de:	4413      	add	r3, r2
 80016e0:	613b      	str	r3, [r7, #16]
        if (!b->active) continue;
 80016e2:	693b      	ldr	r3, [r7, #16]
 80016e4:	7c1b      	ldrb	r3, [r3, #16]
 80016e6:	f083 0301 	eor.w	r3, r3, #1
 80016ea:	b2db      	uxtb	r3, r3
 80016ec:	2b00      	cmp	r3, #0
 80016ee:	d125      	bne.n	800173c <bullets_update+0x7c>

        b->x += b->vx;
 80016f0:	693b      	ldr	r3, [r7, #16]
 80016f2:	681a      	ldr	r2, [r3, #0]
 80016f4:	693b      	ldr	r3, [r7, #16]
 80016f6:	689b      	ldr	r3, [r3, #8]
 80016f8:	441a      	add	r2, r3
 80016fa:	693b      	ldr	r3, [r7, #16]
 80016fc:	601a      	str	r2, [r3, #0]
        b->y += b->vy;
 80016fe:	693b      	ldr	r3, [r7, #16]
 8001700:	685a      	ldr	r2, [r3, #4]
 8001702:	693b      	ldr	r3, [r7, #16]
 8001704:	68db      	ldr	r3, [r3, #12]
 8001706:	441a      	add	r2, r3
 8001708:	693b      	ldr	r3, [r7, #16]
 800170a:	605a      	str	r2, [r3, #4]

        // konverter til celler for bounds
        int bx = (int)(b->x >> BULLET_FP_SHIFT);
 800170c:	693b      	ldr	r3, [r7, #16]
 800170e:	681b      	ldr	r3, [r3, #0]
 8001710:	121b      	asrs	r3, r3, #8
 8001712:	60fb      	str	r3, [r7, #12]
        int by = (int)(b->y >> BULLET_FP_SHIFT);
 8001714:	693b      	ldr	r3, [r7, #16]
 8001716:	685b      	ldr	r3, [r3, #4]
 8001718:	121b      	asrs	r3, r3, #8
 800171a:	60bb      	str	r3, [r7, #8]

        if (by < 0 || by >= SCREEN_ROWS || bx < 0 || bx >= SCREEN_COLS)
 800171c:	68bb      	ldr	r3, [r7, #8]
 800171e:	2b00      	cmp	r3, #0
 8001720:	db08      	blt.n	8001734 <bullets_update+0x74>
 8001722:	68bb      	ldr	r3, [r7, #8]
 8001724:	2b27      	cmp	r3, #39	; 0x27
 8001726:	dc05      	bgt.n	8001734 <bullets_update+0x74>
 8001728:	68fb      	ldr	r3, [r7, #12]
 800172a:	2b00      	cmp	r3, #0
 800172c:	db02      	blt.n	8001734 <bullets_update+0x74>
 800172e:	68fb      	ldr	r3, [r7, #12]
 8001730:	2b3b      	cmp	r3, #59	; 0x3b
 8001732:	dd04      	ble.n	800173e <bullets_update+0x7e>
            b->active = false;
 8001734:	693b      	ldr	r3, [r7, #16]
 8001736:	2200      	movs	r2, #0
 8001738:	741a      	strb	r2, [r3, #16]
 800173a:	e000      	b.n	800173e <bullets_update+0x7e>
        if (!b->active) continue;
 800173c:	bf00      	nop
    for (int i = 0; i < count; i++)
 800173e:	697b      	ldr	r3, [r7, #20]
 8001740:	3301      	adds	r3, #1
 8001742:	617b      	str	r3, [r7, #20]
 8001744:	697a      	ldr	r2, [r7, #20]
 8001746:	683b      	ldr	r3, [r7, #0]
 8001748:	429a      	cmp	r2, r3
 800174a:	dbc1      	blt.n	80016d0 <bullets_update+0x10>
    }
}
 800174c:	bf00      	nop
 800174e:	bf00      	nop
 8001750:	371c      	adds	r7, #28
 8001752:	46bd      	mov	sp, r7
 8001754:	f85d 7b04 	ldr.w	r7, [sp], #4
 8001758:	4770      	bx	lr
	...

0800175c <bullets_hit_enemies>:

int bullets_hit_enemies(Bullet bullets[], int count, enemy enemy_pool[], int *bonus_collected)
{
 800175c:	b480      	push	{r7}
 800175e:	b091      	sub	sp, #68	; 0x44
 8001760:	af00      	add	r7, sp, #0
 8001762:	60f8      	str	r0, [r7, #12]
 8001764:	60b9      	str	r1, [r7, #8]
 8001766:	607a      	str	r2, [r7, #4]
 8001768:	603b      	str	r3, [r7, #0]
    int kills = 0;
 800176a:	2300      	movs	r3, #0
 800176c:	63fb      	str	r3, [r7, #60]	; 0x3c
    if (bonus_collected) *bonus_collected = 0;
 800176e:	683b      	ldr	r3, [r7, #0]
 8001770:	2b00      	cmp	r3, #0
 8001772:	d002      	beq.n	800177a <bullets_hit_enemies+0x1e>
 8001774:	683b      	ldr	r3, [r7, #0]
 8001776:	2200      	movs	r2, #0
 8001778:	601a      	str	r2, [r3, #0]

    for (int bi = 0; bi < count; bi++)
 800177a:	2300      	movs	r3, #0
 800177c:	63bb      	str	r3, [r7, #56]	; 0x38
 800177e:	e090      	b.n	80018a2 <bullets_hit_enemies+0x146>
    {
        Bullet *b = &bullets[bi];
 8001780:	6bba      	ldr	r2, [r7, #56]	; 0x38
 8001782:	4613      	mov	r3, r2
 8001784:	009b      	lsls	r3, r3, #2
 8001786:	4413      	add	r3, r2
 8001788:	009b      	lsls	r3, r3, #2
 800178a:	461a      	mov	r2, r3
 800178c:	68fb      	ldr	r3, [r7, #12]
 800178e:	4413      	add	r3, r2
 8001790:	633b      	str	r3, [r7, #48]	; 0x30
        if (!b->active) continue;
 8001792:	6b3b      	ldr	r3, [r7, #48]	; 0x30
 8001794:	7c1b      	ldrb	r3, [r3, #16]
 8001796:	f083 0301 	eor.w	r3, r3, #1
 800179a:	b2db      	uxtb	r3, r3
 800179c:	2b00      	cmp	r3, #0
 800179e:	d17c      	bne.n	800189a <bullets_hit_enemies+0x13e>

        int bx = (int)(b->x >> BULLET_FP_SHIFT);
 80017a0:	6b3b      	ldr	r3, [r7, #48]	; 0x30
 80017a2:	681b      	ldr	r3, [r3, #0]
 80017a4:	121b      	asrs	r3, r3, #8
 80017a6:	62fb      	str	r3, [r7, #44]	; 0x2c
        int by = (int)(b->y >> BULLET_FP_SHIFT);
 80017a8:	6b3b      	ldr	r3, [r7, #48]	; 0x30
 80017aa:	685b      	ldr	r3, [r3, #4]
 80017ac:	121b      	asrs	r3, r3, #8
 80017ae:	62bb      	str	r3, [r7, #40]	; 0x28

        for (int ei = 0; ei < MAX_ENEMIES; ei++)
 80017b0:	2300      	movs	r3, #0
 80017b2:	637b      	str	r3, [r7, #52]	; 0x34
 80017b4:	e06d      	b.n	8001892 <bullets_hit_enemies+0x136>
        {
            if (!enemy_pool[ei].alive) continue;
 80017b6:	6b7a      	ldr	r2, [r7, #52]	; 0x34
 80017b8:	4613      	mov	r3, r2
 80017ba:	009b      	lsls	r3, r3, #2
 80017bc:	4413      	add	r3, r2
 80017be:	005b      	lsls	r3, r3, #1
 80017c0:	461a      	mov	r2, r3
 80017c2:	687b      	ldr	r3, [r7, #4]
 80017c4:	4413      	add	r3, r2
 80017c6:	79db      	ldrb	r3, [r3, #7]
 80017c8:	2b00      	cmp	r3, #0
 80017ca:	d05e      	beq.n	800188a <bullets_hit_enemies+0x12e>

            int ex = enemy_pool[ei].x;
 80017cc:	6b7a      	ldr	r2, [r7, #52]	; 0x34
 80017ce:	4613      	mov	r3, r2
 80017d0:	009b      	lsls	r3, r3, #2
 80017d2:	4413      	add	r3, r2
 80017d4:	005b      	lsls	r3, r3, #1
 80017d6:	461a      	mov	r2, r3
 80017d8:	687b      	ldr	r3, [r7, #4]
 80017da:	4413      	add	r3, r2
 80017dc:	881b      	ldrh	r3, [r3, #0]
 80017de:	627b      	str	r3, [r7, #36]	; 0x24
            int ey = enemy_pool[ei].y;
 80017e0:	6b7a      	ldr	r2, [r7, #52]	; 0x34
 80017e2:	4613      	mov	r3, r2
 80017e4:	009b      	lsls	r3, r3, #2
 80017e6:	4413      	add	r3, r2
 80017e8:	005b      	lsls	r3, r3, #1
 80017ea:	461a      	mov	r2, r3
 80017ec:	687b      	ldr	r3, [r7, #4]
 80017ee:	4413      	add	r3, r2
 80017f0:	885b      	ldrh	r3, [r3, #2]
 80017f2:	623b      	str	r3, [r7, #32]

            int left   = ex;
 80017f4:	6a7b      	ldr	r3, [r7, #36]	; 0x24
 80017f6:	61fb      	str	r3, [r7, #28]
            int right  = ex + 4;
 80017f8:	6a7b      	ldr	r3, [r7, #36]	; 0x24
 80017fa:	3304      	adds	r3, #4
 80017fc:	61bb      	str	r3, [r7, #24]
            int top    = ey - 2;
 80017fe:	6a3b      	ldr	r3, [r7, #32]
 8001800:	3b02      	subs	r3, #2
 8001802:	617b      	str	r3, [r7, #20]
            int bottom = ey;
 8001804:	6a3b      	ldr	r3, [r7, #32]
 8001806:	613b      	str	r3, [r7, #16]

            if (bx >= left && bx <= right &&
 8001808:	6afa      	ldr	r2, [r7, #44]	; 0x2c
 800180a:	69fb      	ldr	r3, [r7, #28]
 800180c:	429a      	cmp	r2, r3
 800180e:	db3d      	blt.n	800188c <bullets_hit_enemies+0x130>
 8001810:	6afa      	ldr	r2, [r7, #44]	; 0x2c
 8001812:	69bb      	ldr	r3, [r7, #24]
 8001814:	429a      	cmp	r2, r3
 8001816:	dc39      	bgt.n	800188c <bullets_hit_enemies+0x130>
 8001818:	6aba      	ldr	r2, [r7, #40]	; 0x28
 800181a:	697b      	ldr	r3, [r7, #20]
 800181c:	429a      	cmp	r2, r3
 800181e:	db35      	blt.n	800188c <bullets_hit_enemies+0x130>
                by >= top  && by <= bottom)
 8001820:	6aba      	ldr	r2, [r7, #40]	; 0x28
 8001822:	693b      	ldr	r3, [r7, #16]
 8001824:	429a      	cmp	r2, r3
 8001826:	dc31      	bgt.n	800188c <bullets_hit_enemies+0x130>
            {
                if (enemy_pool[ei].has_bonus)
 8001828:	6b7a      	ldr	r2, [r7, #52]	; 0x34
 800182a:	4613      	mov	r3, r2
 800182c:	009b      	lsls	r3, r3, #2
 800182e:	4413      	add	r3, r2
 8001830:	005b      	lsls	r3, r3, #1
 8001832:	461a      	mov	r2, r3
 8001834:	687b      	ldr	r3, [r7, #4]
 8001836:	4413      	add	r3, r2
 8001838:	7a1b      	ldrb	r3, [r3, #8]
 800183a:	2b00      	cmp	r3, #0
 800183c:	d00f      	beq.n	800185e <bullets_hit_enemies+0x102>
                {
                    if (bonus_collected) *bonus_collected = 1;
 800183e:	683b      	ldr	r3, [r7, #0]
 8001840:	2b00      	cmp	r3, #0
 8001842:	d002      	beq.n	800184a <bullets_hit_enemies+0xee>
 8001844:	683b      	ldr	r3, [r7, #0]
 8001846:	2201      	movs	r2, #1
 8001848:	601a      	str	r2, [r3, #0]
                    enemy_pool[ei].has_bonus = 0;
 800184a:	6b7a      	ldr	r2, [r7, #52]	; 0x34
 800184c:	4613      	mov	r3, r2
 800184e:	009b      	lsls	r3, r3, #2
 8001850:	4413      	add	r3, r2
 8001852:	005b      	lsls	r3, r3, #1
 8001854:	461a      	mov	r2, r3
 8001856:	687b      	ldr	r3, [r7, #4]
 8001858:	4413      	add	r3, r2
 800185a:	2200      	movs	r2, #0
 800185c:	721a      	strb	r2, [r3, #8]
                }

                enemy_pool[ei].alive = 0;
 800185e:	6b7a      	ldr	r2, [r7, #52]	; 0x34
 8001860:	4613      	mov	r3, r2
 8001862:	009b      	lsls	r3, r3, #2
 8001864:	4413      	add	r3, r2
 8001866:	005b      	lsls	r3, r3, #1
 8001868:	461a      	mov	r2, r3
 800186a:	687b      	ldr	r3, [r7, #4]
 800186c:	4413      	add	r3, r2
 800186e:	2200      	movs	r2, #0
 8001870:	71da      	strb	r2, [r3, #7]
                b->active = false;
 8001872:	6b3b      	ldr	r3, [r7, #48]	; 0x30
 8001874:	2200      	movs	r2, #0
 8001876:	741a      	strb	r2, [r3, #16]

                kills++;
 8001878:	6bfb      	ldr	r3, [r7, #60]	; 0x3c
 800187a:	3301      	adds	r3, #1
 800187c:	63fb      	str	r3, [r7, #60]	; 0x3c
                g_test_hit_counter++;
 800187e:	4b0f      	ldr	r3, [pc, #60]	; (80018bc <bullets_hit_enemies+0x160>)
 8001880:	681b      	ldr	r3, [r3, #0]
 8001882:	3301      	adds	r3, #1
 8001884:	4a0d      	ldr	r2, [pc, #52]	; (80018bc <bullets_hit_enemies+0x160>)
 8001886:	6013      	str	r3, [r2, #0]
                break;
 8001888:	e008      	b.n	800189c <bullets_hit_enemies+0x140>
            if (!enemy_pool[ei].alive) continue;
 800188a:	bf00      	nop
        for (int ei = 0; ei < MAX_ENEMIES; ei++)
 800188c:	6b7b      	ldr	r3, [r7, #52]	; 0x34
 800188e:	3301      	adds	r3, #1
 8001890:	637b      	str	r3, [r7, #52]	; 0x34
 8001892:	6b7b      	ldr	r3, [r7, #52]	; 0x34
 8001894:	2b04      	cmp	r3, #4
 8001896:	dd8e      	ble.n	80017b6 <bullets_hit_enemies+0x5a>
 8001898:	e000      	b.n	800189c <bullets_hit_enemies+0x140>
        if (!b->active) continue;
 800189a:	bf00      	nop
    for (int bi = 0; bi < count; bi++)
 800189c:	6bbb      	ldr	r3, [r7, #56]	; 0x38
 800189e:	3301      	adds	r3, #1
 80018a0:	63bb      	str	r3, [r7, #56]	; 0x38
 80018a2:	6bba      	ldr	r2, [r7, #56]	; 0x38
 80018a4:	68bb      	ldr	r3, [r7, #8]
 80018a6:	429a      	cmp	r2, r3
 80018a8:	f6ff af6a 	blt.w	8001780 <bullets_hit_enemies+0x24>
            }
        }
    }

    return kills;
 80018ac:	6bfb      	ldr	r3, [r7, #60]	; 0x3c
}
 80018ae:	4618      	mov	r0, r3
 80018b0:	3744      	adds	r7, #68	; 0x44
 80018b2:	46bd      	mov	sp, r7
 80018b4:	f85d 7b04 	ldr.w	r7, [sp], #4
 80018b8:	4770      	bx	lr
 80018ba:	bf00      	nop
 80018bc:	200001e4 	.word	0x200001e4

080018c0 <bullets_push_buffer>:

void bullets_push_buffer(uint8_t buf[SCREEN_ROWS][SCREEN_COLS], Bullet bullets[], int count)
{
 80018c0:	b480      	push	{r7}
 80018c2:	b089      	sub	sp, #36	; 0x24
 80018c4:	af00      	add	r7, sp, #0
 80018c6:	60f8      	str	r0, [r7, #12]
 80018c8:	60b9      	str	r1, [r7, #8]
 80018ca:	607a      	str	r2, [r7, #4]
    for (int i = 0; i < count; i++)
 80018cc:	2300      	movs	r3, #0
 80018ce:	61fb      	str	r3, [r7, #28]
 80018d0:	e034      	b.n	800193c <bullets_push_buffer+0x7c>
    {
        Bullet *b = &bullets[i];
 80018d2:	69fa      	ldr	r2, [r7, #28]
 80018d4:	4613      	mov	r3, r2
 80018d6:	009b      	lsls	r3, r3, #2
 80018d8:	4413      	add	r3, r2
 80018da:	009b      	lsls	r3, r3, #2
 80018dc:	461a      	mov	r2, r3
 80018de:	68bb      	ldr	r3, [r7, #8]
 80018e0:	4413      	add	r3, r2
 80018e2:	61bb      	str	r3, [r7, #24]
        if (!b->active) continue;
 80018e4:	69bb      	ldr	r3, [r7, #24]
 80018e6:	7c1b      	ldrb	r3, [r3, #16]
 80018e8:	f083 0301 	eor.w	r3, r3, #1
 80018ec:	b2db      	uxtb	r3, r3
 80018ee:	2b00      	cmp	r3, #0
 80018f0:	d120      	bne.n	8001934 <bullets_push_buffer+0x74>

        int bx = (int)(b->x >> BULLET_FP_SHIFT);
 80018f2:	69bb      	ldr	r3, [r7, #24]
 80018f4:	681b      	ldr	r3, [r3, #0]
 80018f6:	121b      	asrs	r3, r3, #8
 80018f8:	617b      	str	r3, [r7, #20]
        int by = (int)(b->y >> BULLET_FP_SHIFT);
 80018fa:	69bb      	ldr	r3, [r7, #24]
 80018fc:	685b      	ldr	r3, [r3, #4]
 80018fe:	121b      	asrs	r3, r3, #8
 8001900:	613b      	str	r3, [r7, #16]

        if (bx >= 0 && bx < SCREEN_COLS &&
 8001902:	697b      	ldr	r3, [r7, #20]
 8001904:	2b00      	cmp	r3, #0
 8001906:	db16      	blt.n	8001936 <bullets_push_buffer+0x76>
 8001908:	697b      	ldr	r3, [r7, #20]
 800190a:	2b3b      	cmp	r3, #59	; 0x3b
 800190c:	dc13      	bgt.n	8001936 <bullets_push_buffer+0x76>
 800190e:	693b      	ldr	r3, [r7, #16]
 8001910:	2b00      	cmp	r3, #0
 8001912:	db10      	blt.n	8001936 <bullets_push_buffer+0x76>
            by >= 0 && by < SCREEN_ROWS)
 8001914:	693b      	ldr	r3, [r7, #16]
 8001916:	2b27      	cmp	r3, #39	; 0x27
 8001918:	dc0d      	bgt.n	8001936 <bullets_push_buffer+0x76>
        {
            buf[by][bx] = '|';
 800191a:	693a      	ldr	r2, [r7, #16]
 800191c:	4613      	mov	r3, r2
 800191e:	011b      	lsls	r3, r3, #4
 8001920:	1a9b      	subs	r3, r3, r2
 8001922:	009b      	lsls	r3, r3, #2
 8001924:	461a      	mov	r2, r3
 8001926:	68fb      	ldr	r3, [r7, #12]
 8001928:	441a      	add	r2, r3
 800192a:	697b      	ldr	r3, [r7, #20]
 800192c:	4413      	add	r3, r2
 800192e:	227c      	movs	r2, #124	; 0x7c
 8001930:	701a      	strb	r2, [r3, #0]
 8001932:	e000      	b.n	8001936 <bullets_push_buffer+0x76>
        if (!b->active) continue;
 8001934:	bf00      	nop
    for (int i = 0; i < count; i++)
 8001936:	69fb      	ldr	r3, [r7, #28]
 8001938:	3301      	adds	r3, #1
 800193a:	61fb      	str	r3, [r7, #28]
 800193c:	69fa      	ldr	r2, [r7, #28]
 800193e:	687b      	ldr	r3, [r7, #4]
 8001940:	429a      	cmp	r2, r3
 8001942:	dbc6      	blt.n	80018d2 <bullets_push_buffer+0x12>
        }
    }
}
 8001944:	bf00      	nop
 8001946:	bf00      	nop
 8001948:	3724      	adds	r7, #36	; 0x24
 800194a:	46bd      	mov	sp, r7
 800194c:	f85d 7b04 	ldr.w	r7, [sp], #4
 8001950:	4770      	bx	lr
	...

08001954 <bullets_powerup_activate>:

void bullets_powerup_activate(int ticks)
{
 8001954:	b480      	push	{r7}
 8001956:	b083      	sub	sp, #12
 8001958:	af00      	add	r7, sp, #0
 800195a:	6078      	str	r0, [r7, #4]
    g_powerup_ticks_left = ticks;
 800195c:	4a04      	ldr	r2, [pc, #16]	; (8001970 <bullets_powerup_activate+0x1c>)
 800195e:	687b      	ldr	r3, [r7, #4]
 8001960:	6013      	str	r3, [r2, #0]
}
 8001962:	bf00      	nop
 8001964:	370c      	adds	r7, #12
 8001966:	46bd      	mov	sp, r7
 8001968:	f85d 7b04 	ldr.w	r7, [sp], #4
 800196c:	4770      	bx	lr
 800196e:	bf00      	nop
 8001970:	200001e0 	.word	0x200001e0

08001974 <bullets_powerup_tick>:

void bullets_powerup_tick(void)
{
 8001974:	b480      	push	{r7}
 8001976:	af00      	add	r7, sp, #0
    if (g_powerup_ticks_left > 0)
 8001978:	4b06      	ldr	r3, [pc, #24]	; (8001994 <bullets_powerup_tick+0x20>)
 800197a:	681b      	ldr	r3, [r3, #0]
 800197c:	2b00      	cmp	r3, #0
 800197e:	dd04      	ble.n	800198a <bullets_powerup_tick+0x16>
        g_powerup_ticks_left--;
 8001980:	4b04      	ldr	r3, [pc, #16]	; (8001994 <bullets_powerup_tick+0x20>)
 8001982:	681b      	ldr	r3, [r3, #0]
 8001984:	3b01      	subs	r3, #1
 8001986:	4a03      	ldr	r2, [pc, #12]	; (8001994 <bullets_powerup_tick+0x20>)
 8001988:	6013      	str	r3, [r2, #0]
}
 800198a:	bf00      	nop
 800198c:	46bd      	mov	sp, r7
 800198e:	f85d 7b04 	ldr.w	r7, [sp], #4
 8001992:	4770      	bx	lr
 8001994:	200001e0 	.word	0x200001e0

08001998 <bullets_handle_shoot>:

void bullets_handle_shoot(Bullet bullets[], int count, int shoot_just_pressed, int x, int y)
{
 8001998:	b580      	push	{r7, lr}
 800199a:	b084      	sub	sp, #16
 800199c:	af00      	add	r7, sp, #0
 800199e:	60f8      	str	r0, [r7, #12]
 80019a0:	60b9      	str	r1, [r7, #8]
 80019a2:	607a      	str	r2, [r7, #4]
 80019a4:	603b      	str	r3, [r7, #0]
    if (!shoot_just_pressed) return;
 80019a6:	687b      	ldr	r3, [r7, #4]
 80019a8:	2b00      	cmp	r3, #0
 80019aa:	d011      	beq.n	80019d0 <bullets_handle_shoot+0x38>

    if (g_powerup_ticks_left > 0)
 80019ac:	4b0a      	ldr	r3, [pc, #40]	; (80019d8 <bullets_handle_shoot+0x40>)
 80019ae:	681b      	ldr	r3, [r3, #0]
 80019b0:	2b00      	cmp	r3, #0
 80019b2:	dd06      	ble.n	80019c2 <bullets_handle_shoot+0x2a>
        bullets_shoot_spread5(bullets, count, x, y);
 80019b4:	69bb      	ldr	r3, [r7, #24]
 80019b6:	683a      	ldr	r2, [r7, #0]
 80019b8:	68b9      	ldr	r1, [r7, #8]
 80019ba:	68f8      	ldr	r0, [r7, #12]
 80019bc:	f7ff fe32 	bl	8001624 <bullets_shoot_spread5>
 80019c0:	e007      	b.n	80019d2 <bullets_handle_shoot+0x3a>
    else
        bullets_shoot_single(bullets, count, x, y);
 80019c2:	69bb      	ldr	r3, [r7, #24]
 80019c4:	683a      	ldr	r2, [r7, #0]
 80019c6:	68b9      	ldr	r1, [r7, #8]
 80019c8:	68f8      	ldr	r0, [r7, #12]
 80019ca:	f7ff fdde 	bl	800158a <bullets_shoot_single>
 80019ce:	e000      	b.n	80019d2 <bullets_handle_shoot+0x3a>
    if (!shoot_just_pressed) return;
 80019d0:	bf00      	nop
}
 80019d2:	3710      	adds	r7, #16
 80019d4:	46bd      	mov	sp, r7
 80019d6:	bd80      	pop	{r7, pc}
 80019d8:	200001e0 	.word	0x200001e0

080019dc <bullets_test_should_powerup>:

int bullets_test_should_powerup(int threshold)
{
 80019dc:	b480      	push	{r7}
 80019de:	b083      	sub	sp, #12
 80019e0:	af00      	add	r7, sp, #0
 80019e2:	6078      	str	r0, [r7, #4]
    if (g_test_hit_counter >= threshold)
 80019e4:	4b08      	ldr	r3, [pc, #32]	; (8001a08 <bullets_test_should_powerup+0x2c>)
 80019e6:	681b      	ldr	r3, [r3, #0]
 80019e8:	687a      	ldr	r2, [r7, #4]
 80019ea:	429a      	cmp	r2, r3
 80019ec:	dc04      	bgt.n	80019f8 <bullets_test_should_powerup+0x1c>
    {
        g_test_hit_counter = 0;
 80019ee:	4b06      	ldr	r3, [pc, #24]	; (8001a08 <bullets_test_should_powerup+0x2c>)
 80019f0:	2200      	movs	r2, #0
 80019f2:	601a      	str	r2, [r3, #0]
        return 1;
 80019f4:	2301      	movs	r3, #1
 80019f6:	e000      	b.n	80019fa <bullets_test_should_powerup+0x1e>
    }
    return 0;
 80019f8:	2300      	movs	r3, #0
}
 80019fa:	4618      	mov	r0, r3
 80019fc:	370c      	adds	r7, #12
 80019fe:	46bd      	mov	sp, r7
 8001a00:	f85d 7b04 	ldr.w	r7, [sp], #4
 8001a04:	4770      	bx	lr
 8001a06:	bf00      	nop
 8001a08:	200001e4 	.word	0x200001e4

08001a0c <speaker_set_freq>:

/* ============================================================
   HAL  PWM setup
   ============================================================ */
static void speaker_set_freq(uint16_t freq)
{
 8001a0c:	b480      	push	{r7}
 8001a0e:	b085      	sub	sp, #20
 8001a10:	af00      	add	r7, sp, #0
 8001a12:	4603      	mov	r3, r0
 8001a14:	80fb      	strh	r3, [r7, #6]
    if (freq == 0) {
 8001a16:	88fb      	ldrh	r3, [r7, #6]
 8001a18:	2b00      	cmp	r3, #0
 8001a1a:	d104      	bne.n	8001a26 <speaker_set_freq+0x1a>
        SPK_TIM->CCR3 = 0;   // duty = 0 -> stilhed
 8001a1c:	f04f 4380 	mov.w	r3, #1073741824	; 0x40000000
 8001a20:	2200      	movs	r2, #0
 8001a22:	63da      	str	r2, [r3, #60]	; 0x3c
        return;
 8001a24:	e019      	b.n	8001a5a <speaker_set_freq+0x4e>
    }

    uint32_t arr = (TICK_HZ / freq) - 1;
 8001a26:	88fb      	ldrh	r3, [r7, #6]
 8001a28:	4a0e      	ldr	r2, [pc, #56]	; (8001a64 <speaker_set_freq+0x58>)
 8001a2a:	fbb2 f3f3 	udiv	r3, r2, r3
 8001a2e:	3b01      	subs	r3, #1
 8001a30:	60fb      	str	r3, [r7, #12]
    if (arr > 0xFFFF) arr = 0xFFFF;
 8001a32:	68fb      	ldr	r3, [r7, #12]
 8001a34:	f5b3 3f80 	cmp.w	r3, #65536	; 0x10000
 8001a38:	d302      	bcc.n	8001a40 <speaker_set_freq+0x34>
 8001a3a:	f64f 73ff 	movw	r3, #65535	; 0xffff
 8001a3e:	60fb      	str	r3, [r7, #12]

    SPK_TIM->ARR  = arr;
 8001a40:	f04f 4280 	mov.w	r2, #1073741824	; 0x40000000
 8001a44:	68fb      	ldr	r3, [r7, #12]
 8001a46:	62d3      	str	r3, [r2, #44]	; 0x2c
    SPK_TIM->CCR3 = arr / 2;   // 50% duty
 8001a48:	f04f 4280 	mov.w	r2, #1073741824	; 0x40000000
 8001a4c:	68fb      	ldr	r3, [r7, #12]
 8001a4e:	085b      	lsrs	r3, r3, #1
 8001a50:	63d3      	str	r3, [r2, #60]	; 0x3c
    SPK_TIM->EGR  = 1;
 8001a52:	f04f 4380 	mov.w	r3, #1073741824	; 0x40000000
 8001a56:	2201      	movs	r2, #1
 8001a58:	615a      	str	r2, [r3, #20]
}
 8001a5a:	3714      	adds	r7, #20
 8001a5c:	46bd      	mov	sp, r7
 8001a5e:	f85d 7b04 	ldr.w	r7, [sp], #4
 8001a62:	4770      	bx	lr
 8001a64:	000f4240 	.word	0x000f4240

08001a68 <seq_start>:

/* ============================================================
   Sequencer
   ============================================================ */
static void seq_start(seq_player_t *p)
{
 8001a68:	b580      	push	{r7, lr}
 8001a6a:	b082      	sub	sp, #8
 8001a6c:	af00      	add	r7, sp, #0
 8001a6e:	6078      	str	r0, [r7, #4]
    p->playing = 1;
 8001a70:	687b      	ldr	r3, [r7, #4]
 8001a72:	2201      	movs	r2, #1
 8001a74:	739a      	strb	r2, [r3, #14]
    p->remaining_ms = p->song.notes[p->idx].dur_ms;
 8001a76:	687b      	ldr	r3, [r7, #4]
 8001a78:	681a      	ldr	r2, [r3, #0]
 8001a7a:	687b      	ldr	r3, [r7, #4]
 8001a7c:	689b      	ldr	r3, [r3, #8]
 8001a7e:	009b      	lsls	r3, r3, #2
 8001a80:	4413      	add	r3, r2
 8001a82:	885a      	ldrh	r2, [r3, #2]
 8001a84:	687b      	ldr	r3, [r7, #4]
 8001a86:	819a      	strh	r2, [r3, #12]
    speaker_set_freq(p->song.notes[p->idx].freq_hz);
 8001a88:	687b      	ldr	r3, [r7, #4]
 8001a8a:	681a      	ldr	r2, [r3, #0]
 8001a8c:	687b      	ldr	r3, [r7, #4]
 8001a8e:	689b      	ldr	r3, [r3, #8]
 8001a90:	009b      	lsls	r3, r3, #2
 8001a92:	4413      	add	r3, r2
 8001a94:	881b      	ldrh	r3, [r3, #0]
 8001a96:	4618      	mov	r0, r3
 8001a98:	f7ff ffb8 	bl	8001a0c <speaker_set_freq>
}
 8001a9c:	bf00      	nop
 8001a9e:	3708      	adds	r7, #8
 8001aa0:	46bd      	mov	sp, r7
 8001aa2:	bd80      	pop	{r7, pc}

08001aa4 <seq_next>:

static void seq_next(seq_player_t *p)
{
 8001aa4:	b580      	push	{r7, lr}
 8001aa6:	b082      	sub	sp, #8
 8001aa8:	af00      	add	r7, sp, #0
 8001aaa:	6078      	str	r0, [r7, #4]
    p->idx++;
 8001aac:	687b      	ldr	r3, [r7, #4]
 8001aae:	689b      	ldr	r3, [r3, #8]
 8001ab0:	1c5a      	adds	r2, r3, #1
 8001ab2:	687b      	ldr	r3, [r7, #4]
 8001ab4:	609a      	str	r2, [r3, #8]

    if (p->idx >= p->song.len) {
 8001ab6:	687b      	ldr	r3, [r7, #4]
 8001ab8:	689a      	ldr	r2, [r3, #8]
 8001aba:	687b      	ldr	r3, [r7, #4]
 8001abc:	685b      	ldr	r3, [r3, #4]
 8001abe:	429a      	cmp	r2, r3
 8001ac0:	d30e      	bcc.n	8001ae0 <seq_next+0x3c>
        if (p->loop) p->idx = 0;
 8001ac2:	687b      	ldr	r3, [r7, #4]
 8001ac4:	7bdb      	ldrb	r3, [r3, #15]
 8001ac6:	2b00      	cmp	r3, #0
 8001ac8:	d003      	beq.n	8001ad2 <seq_next+0x2e>
 8001aca:	687b      	ldr	r3, [r7, #4]
 8001acc:	2200      	movs	r2, #0
 8001ace:	609a      	str	r2, [r3, #8]
 8001ad0:	e006      	b.n	8001ae0 <seq_next+0x3c>
        else { p->playing = 0; speaker_set_freq(0); return; }
 8001ad2:	687b      	ldr	r3, [r7, #4]
 8001ad4:	2200      	movs	r2, #0
 8001ad6:	739a      	strb	r2, [r3, #14]
 8001ad8:	2000      	movs	r0, #0
 8001ada:	f7ff ff97 	bl	8001a0c <speaker_set_freq>
 8001ade:	e012      	b.n	8001b06 <seq_next+0x62>
    }

    p->remaining_ms = p->song.notes[p->idx].dur_ms;
 8001ae0:	687b      	ldr	r3, [r7, #4]
 8001ae2:	681a      	ldr	r2, [r3, #0]
 8001ae4:	687b      	ldr	r3, [r7, #4]
 8001ae6:	689b      	ldr	r3, [r3, #8]
 8001ae8:	009b      	lsls	r3, r3, #2
 8001aea:	4413      	add	r3, r2
 8001aec:	885a      	ldrh	r2, [r3, #2]
 8001aee:	687b      	ldr	r3, [r7, #4]
 8001af0:	819a      	strh	r2, [r3, #12]
    speaker_set_freq(p->song.notes[p->idx].freq_hz);
 8001af2:	687b      	ldr	r3, [r7, #4]
 8001af4:	681a      	ldr	r2, [r3, #0]
 8001af6:	687b      	ldr	r3, [r7, #4]
 8001af8:	689b      	ldr	r3, [r3, #8]
 8001afa:	009b      	lsls	r3, r3, #2
 8001afc:	4413      	add	r3, r2
 8001afe:	881b      	ldrh	r3, [r3, #0]
 8001b00:	4618      	mov	r0, r3
 8001b02:	f7ff ff83 	bl	8001a0c <speaker_set_freq>
}
 8001b06:	3708      	adds	r7, #8
 8001b08:	46bd      	mov	sp, r7
 8001b0a:	bd80      	pop	{r7, pc}

08001b0c <buzzer_set_bg>:

/* ============================================================
   API
   ============================================================ */
void buzzer_set_bg(buzzer_song_t song, uint8_t loop)
{
 8001b0c:	b480      	push	{r7}
 8001b0e:	b085      	sub	sp, #20
 8001b10:	af00      	add	r7, sp, #0
 8001b12:	f107 0308 	add.w	r3, r7, #8
 8001b16:	e883 0003 	stmia.w	r3, {r0, r1}
 8001b1a:	4613      	mov	r3, r2
 8001b1c:	71fb      	strb	r3, [r7, #7]
    bg.song = song;
 8001b1e:	4b0b      	ldr	r3, [pc, #44]	; (8001b4c <buzzer_set_bg+0x40>)
 8001b20:	461a      	mov	r2, r3
 8001b22:	f107 0308 	add.w	r3, r7, #8
 8001b26:	e893 0003 	ldmia.w	r3, {r0, r1}
 8001b2a:	e882 0003 	stmia.w	r2, {r0, r1}
    bg.loop = loop;
 8001b2e:	4a07      	ldr	r2, [pc, #28]	; (8001b4c <buzzer_set_bg+0x40>)
 8001b30:	79fb      	ldrb	r3, [r7, #7]
 8001b32:	73d3      	strb	r3, [r2, #15]
    bg.idx = 0;
 8001b34:	4b05      	ldr	r3, [pc, #20]	; (8001b4c <buzzer_set_bg+0x40>)
 8001b36:	2200      	movs	r2, #0
 8001b38:	609a      	str	r2, [r3, #8]
    bg.playing = 0;
 8001b3a:	4b04      	ldr	r3, [pc, #16]	; (8001b4c <buzzer_set_bg+0x40>)
 8001b3c:	2200      	movs	r2, #0
 8001b3e:	739a      	strb	r2, [r3, #14]
}
 8001b40:	bf00      	nop
 8001b42:	3714      	adds	r7, #20
 8001b44:	46bd      	mov	sp, r7
 8001b46:	f85d 7b04 	ldr.w	r7, [sp], #4
 8001b4a:	4770      	bx	lr
 8001b4c:	200005d0 	.word	0x200005d0

08001b50 <buzzer_bg_start>:

void buzzer_bg_start(void)
{
 8001b50:	b580      	push	{r7, lr}
 8001b52:	af00      	add	r7, sp, #0
    seq_start(&bg);
 8001b54:	4802      	ldr	r0, [pc, #8]	; (8001b60 <buzzer_bg_start+0x10>)
 8001b56:	f7ff ff87 	bl	8001a68 <seq_start>
}
 8001b5a:	bf00      	nop
 8001b5c:	bd80      	pop	{r7, pc}
 8001b5e:	bf00      	nop
 8001b60:	200005d0 	.word	0x200005d0

08001b64 <buzzer_play_sfx>:

void buzzer_play_sfx(buzzer_sfx_t sfx)
{
 8001b64:	b580      	push	{r7, lr}
 8001b66:	b08e      	sub	sp, #56	; 0x38
 8001b68:	af00      	add	r7, sp, #0
 8001b6a:	4603      	mov	r3, r0
 8001b6c:	71fb      	strb	r3, [r7, #7]
    bg_was_playing = bg.playing;
 8001b6e:	4b2c      	ldr	r3, [pc, #176]	; (8001c20 <buzzer_play_sfx+0xbc>)
 8001b70:	7b9a      	ldrb	r2, [r3, #14]
 8001b72:	4b2c      	ldr	r3, [pc, #176]	; (8001c24 <buzzer_play_sfx+0xc0>)
 8001b74:	701a      	strb	r2, [r3, #0]
    bg_saved_idx = bg.idx;
 8001b76:	4b2a      	ldr	r3, [pc, #168]	; (8001c20 <buzzer_play_sfx+0xbc>)
 8001b78:	689b      	ldr	r3, [r3, #8]
 8001b7a:	4a2b      	ldr	r2, [pc, #172]	; (8001c28 <buzzer_play_sfx+0xc4>)
 8001b7c:	6013      	str	r3, [r2, #0]
    bg_saved_remaining = bg.remaining_ms;
 8001b7e:	4b28      	ldr	r3, [pc, #160]	; (8001c20 <buzzer_play_sfx+0xbc>)
 8001b80:	899a      	ldrh	r2, [r3, #12]
 8001b82:	4b2a      	ldr	r3, [pc, #168]	; (8001c2c <buzzer_play_sfx+0xc8>)
 8001b84:	801a      	strh	r2, [r3, #0]
    bg.playing = 0;
 8001b86:	4b26      	ldr	r3, [pc, #152]	; (8001c20 <buzzer_play_sfx+0xbc>)
 8001b88:	2200      	movs	r2, #0
 8001b8a:	739a      	strb	r2, [r3, #14]

    switch (sfx) {
 8001b8c:	79fb      	ldrb	r3, [r7, #7]
 8001b8e:	2b05      	cmp	r3, #5
 8001b90:	d838      	bhi.n	8001c04 <buzzer_play_sfx+0xa0>
 8001b92:	a201      	add	r2, pc, #4	; (adr r2, 8001b98 <buzzer_play_sfx+0x34>)
 8001b94:	f852 f023 	ldr.w	pc, [r2, r3, lsl #2]
 8001b98:	08001bb1 	.word	0x08001bb1
 8001b9c:	08001bbf 	.word	0x08001bbf
 8001ba0:	08001bcd 	.word	0x08001bcd
 8001ba4:	08001bdb 	.word	0x08001bdb
 8001ba8:	08001be9 	.word	0x08001be9
 8001bac:	08001bf7 	.word	0x08001bf7
        case SFX_SHOOT:       fx.song = SONG(SFX_SHOOT_NOTES); break;
 8001bb0:	4b1f      	ldr	r3, [pc, #124]	; (8001c30 <buzzer_play_sfx+0xcc>)
 8001bb2:	4a20      	ldr	r2, [pc, #128]	; (8001c34 <buzzer_play_sfx+0xd0>)
 8001bb4:	e892 0003 	ldmia.w	r2, {r0, r1}
 8001bb8:	e883 0003 	stmia.w	r3, {r0, r1}
 8001bbc:	e022      	b.n	8001c04 <buzzer_play_sfx+0xa0>
        case SFX_ENEMY_DEATH: fx.song = SONG(SFX_ENEMY_DEATH_NOTES); break;
 8001bbe:	4b1c      	ldr	r3, [pc, #112]	; (8001c30 <buzzer_play_sfx+0xcc>)
 8001bc0:	4a1d      	ldr	r2, [pc, #116]	; (8001c38 <buzzer_play_sfx+0xd4>)
 8001bc2:	e892 0003 	ldmia.w	r2, {r0, r1}
 8001bc6:	e883 0003 	stmia.w	r3, {r0, r1}
 8001bca:	e01b      	b.n	8001c04 <buzzer_play_sfx+0xa0>
        case SFX_PLAYER_HIT:  fx.song = SONG(SFX_PLAYER_HIT_NOTES); break;
 8001bcc:	4b18      	ldr	r3, [pc, #96]	; (8001c30 <buzzer_play_sfx+0xcc>)
 8001bce:	4a1b      	ldr	r2, [pc, #108]	; (8001c3c <buzzer_play_sfx+0xd8>)
 8001bd0:	e892 0003 	ldmia.w	r2, {r0, r1}
 8001bd4:	e883 0003 	stmia.w	r3, {r0, r1}
 8001bd8:	e014      	b.n	8001c04 <buzzer_play_sfx+0xa0>
        case SFX_BONUS:       fx.song = SONG(SFX_BONUS_NOTES); break;
 8001bda:	4b15      	ldr	r3, [pc, #84]	; (8001c30 <buzzer_play_sfx+0xcc>)
 8001bdc:	4a18      	ldr	r2, [pc, #96]	; (8001c40 <buzzer_play_sfx+0xdc>)
 8001bde:	e892 0003 	ldmia.w	r2, {r0, r1}
 8001be2:	e883 0003 	stmia.w	r3, {r0, r1}
 8001be6:	e00d      	b.n	8001c04 <buzzer_play_sfx+0xa0>
        case SFX_VICTORY:     fx.song = SONG(SFX_VICTORY_NOTES); break;
 8001be8:	4b11      	ldr	r3, [pc, #68]	; (8001c30 <buzzer_play_sfx+0xcc>)
 8001bea:	4a16      	ldr	r2, [pc, #88]	; (8001c44 <buzzer_play_sfx+0xe0>)
 8001bec:	e892 0003 	ldmia.w	r2, {r0, r1}
 8001bf0:	e883 0003 	stmia.w	r3, {r0, r1}
 8001bf4:	e006      	b.n	8001c04 <buzzer_play_sfx+0xa0>
        case SFX_GAMEOVER:    fx.song = SONG(SFX_GAMEOVER_NOTES); break;
 8001bf6:	4b0e      	ldr	r3, [pc, #56]	; (8001c30 <buzzer_play_sfx+0xcc>)
 8001bf8:	4a13      	ldr	r2, [pc, #76]	; (8001c48 <buzzer_play_sfx+0xe4>)
 8001bfa:	e892 0003 	ldmia.w	r2, {r0, r1}
 8001bfe:	e883 0003 	stmia.w	r3, {r0, r1}
 8001c02:	bf00      	nop
    }

    fx.idx = 0;
 8001c04:	4b0a      	ldr	r3, [pc, #40]	; (8001c30 <buzzer_play_sfx+0xcc>)
 8001c06:	2200      	movs	r2, #0
 8001c08:	609a      	str	r2, [r3, #8]
    fx.loop = 0;
 8001c0a:	4b09      	ldr	r3, [pc, #36]	; (8001c30 <buzzer_play_sfx+0xcc>)
 8001c0c:	2200      	movs	r2, #0
 8001c0e:	73da      	strb	r2, [r3, #15]
    seq_start(&fx);
 8001c10:	4807      	ldr	r0, [pc, #28]	; (8001c30 <buzzer_play_sfx+0xcc>)
 8001c12:	f7ff ff29 	bl	8001a68 <seq_start>
}
 8001c16:	bf00      	nop
 8001c18:	3738      	adds	r7, #56	; 0x38
 8001c1a:	46bd      	mov	sp, r7
 8001c1c:	bd80      	pop	{r7, pc}
 8001c1e:	bf00      	nop
 8001c20:	200005d0 	.word	0x200005d0
 8001c24:	200005f0 	.word	0x200005f0
 8001c28:	200005f4 	.word	0x200005f4
 8001c2c:	200005f8 	.word	0x200005f8
 8001c30:	200005e0 	.word	0x200005e0
 8001c34:	08004dfc 	.word	0x08004dfc
 8001c38:	08004e04 	.word	0x08004e04
 8001c3c:	08004e0c 	.word	0x08004e0c
 8001c40:	08004e14 	.word	0x08004e14
 8001c44:	08004e1c 	.word	0x08004e1c
 8001c48:	08004e24 	.word	0x08004e24

08001c4c <buzzer_update>:

void buzzer_update(uint16_t elapsed_ms)
{
 8001c4c:	b580      	push	{r7, lr}
 8001c4e:	b082      	sub	sp, #8
 8001c50:	af00      	add	r7, sp, #0
 8001c52:	4603      	mov	r3, r0
 8001c54:	80fb      	strh	r3, [r7, #6]
    if (fx.playing) {
 8001c56:	4b25      	ldr	r3, [pc, #148]	; (8001cec <buzzer_update+0xa0>)
 8001c58:	7b9b      	ldrb	r3, [r3, #14]
 8001c5a:	2b00      	cmp	r3, #0
 8001c5c:	d02d      	beq.n	8001cba <buzzer_update+0x6e>
        if (fx.remaining_ms > elapsed_ms) fx.remaining_ms -= elapsed_ms;
 8001c5e:	4b23      	ldr	r3, [pc, #140]	; (8001cec <buzzer_update+0xa0>)
 8001c60:	899b      	ldrh	r3, [r3, #12]
 8001c62:	88fa      	ldrh	r2, [r7, #6]
 8001c64:	429a      	cmp	r2, r3
 8001c66:	d207      	bcs.n	8001c78 <buzzer_update+0x2c>
 8001c68:	4b20      	ldr	r3, [pc, #128]	; (8001cec <buzzer_update+0xa0>)
 8001c6a:	899a      	ldrh	r2, [r3, #12]
 8001c6c:	88fb      	ldrh	r3, [r7, #6]
 8001c6e:	1ad3      	subs	r3, r2, r3
 8001c70:	b29a      	uxth	r2, r3
 8001c72:	4b1e      	ldr	r3, [pc, #120]	; (8001cec <buzzer_update+0xa0>)
 8001c74:	819a      	strh	r2, [r3, #12]
 8001c76:	e002      	b.n	8001c7e <buzzer_update+0x32>
        else seq_next(&fx);
 8001c78:	481c      	ldr	r0, [pc, #112]	; (8001cec <buzzer_update+0xa0>)
 8001c7a:	f7ff ff13 	bl	8001aa4 <seq_next>

        if (!fx.playing && bg_was_playing) {
 8001c7e:	4b1b      	ldr	r3, [pc, #108]	; (8001cec <buzzer_update+0xa0>)
 8001c80:	7b9b      	ldrb	r3, [r3, #14]
 8001c82:	2b00      	cmp	r3, #0
 8001c84:	d12e      	bne.n	8001ce4 <buzzer_update+0x98>
 8001c86:	4b1a      	ldr	r3, [pc, #104]	; (8001cf0 <buzzer_update+0xa4>)
 8001c88:	781b      	ldrb	r3, [r3, #0]
 8001c8a:	2b00      	cmp	r3, #0
 8001c8c:	d02a      	beq.n	8001ce4 <buzzer_update+0x98>
            bg.playing = 1;
 8001c8e:	4b19      	ldr	r3, [pc, #100]	; (8001cf4 <buzzer_update+0xa8>)
 8001c90:	2201      	movs	r2, #1
 8001c92:	739a      	strb	r2, [r3, #14]
            bg.idx = bg_saved_idx;
 8001c94:	4b18      	ldr	r3, [pc, #96]	; (8001cf8 <buzzer_update+0xac>)
 8001c96:	681b      	ldr	r3, [r3, #0]
 8001c98:	4a16      	ldr	r2, [pc, #88]	; (8001cf4 <buzzer_update+0xa8>)
 8001c9a:	6093      	str	r3, [r2, #8]
            bg.remaining_ms = bg_saved_remaining;
 8001c9c:	4b17      	ldr	r3, [pc, #92]	; (8001cfc <buzzer_update+0xb0>)
 8001c9e:	881a      	ldrh	r2, [r3, #0]
 8001ca0:	4b14      	ldr	r3, [pc, #80]	; (8001cf4 <buzzer_update+0xa8>)
 8001ca2:	819a      	strh	r2, [r3, #12]
            speaker_set_freq(bg.song.notes[bg.idx].freq_hz);
 8001ca4:	4b13      	ldr	r3, [pc, #76]	; (8001cf4 <buzzer_update+0xa8>)
 8001ca6:	681a      	ldr	r2, [r3, #0]
 8001ca8:	4b12      	ldr	r3, [pc, #72]	; (8001cf4 <buzzer_update+0xa8>)
 8001caa:	689b      	ldr	r3, [r3, #8]
 8001cac:	009b      	lsls	r3, r3, #2
 8001cae:	4413      	add	r3, r2
 8001cb0:	881b      	ldrh	r3, [r3, #0]
 8001cb2:	4618      	mov	r0, r3
 8001cb4:	f7ff feaa 	bl	8001a0c <speaker_set_freq>
        }
        return;
 8001cb8:	e014      	b.n	8001ce4 <buzzer_update+0x98>
    }

    if (bg.playing) {
 8001cba:	4b0e      	ldr	r3, [pc, #56]	; (8001cf4 <buzzer_update+0xa8>)
 8001cbc:	7b9b      	ldrb	r3, [r3, #14]
 8001cbe:	2b00      	cmp	r3, #0
 8001cc0:	d011      	beq.n	8001ce6 <buzzer_update+0x9a>
        if (bg.remaining_ms > elapsed_ms) bg.remaining_ms -= elapsed_ms;
 8001cc2:	4b0c      	ldr	r3, [pc, #48]	; (8001cf4 <buzzer_update+0xa8>)
 8001cc4:	899b      	ldrh	r3, [r3, #12]
 8001cc6:	88fa      	ldrh	r2, [r7, #6]
 8001cc8:	429a      	cmp	r2, r3
 8001cca:	d207      	bcs.n	8001cdc <buzzer_update+0x90>
 8001ccc:	4b09      	ldr	r3, [pc, #36]	; (8001cf4 <buzzer_update+0xa8>)
 8001cce:	899a      	ldrh	r2, [r3, #12]
 8001cd0:	88fb      	ldrh	r3, [r7, #6]
 8001cd2:	1ad3      	subs	r3, r2, r3
 8001cd4:	b29a      	uxth	r2, r3
 8001cd6:	4b07      	ldr	r3, [pc, #28]	; (8001cf4 <buzzer_update+0xa8>)
 8001cd8:	819a      	strh	r2, [r3, #12]
 8001cda:	e004      	b.n	8001ce6 <buzzer_update+0x9a>
        else seq_next(&bg);
 8001cdc:	4805      	ldr	r0, [pc, #20]	; (8001cf4 <buzzer_update+0xa8>)
 8001cde:	f7ff fee1 	bl	8001aa4 <seq_next>
 8001ce2:	e000      	b.n	8001ce6 <buzzer_update+0x9a>
        return;
 8001ce4:	bf00      	nop
    }
}
 8001ce6:	3708      	adds	r7, #8
 8001ce8:	46bd      	mov	sp, r7
 8001cea:	bd80      	pop	{r7, pc}
 8001cec:	200005e0 	.word	0x200005e0
 8001cf0:	200005f0 	.word	0x200005f0
 8001cf4:	200005d0 	.word	0x200005d0
 8001cf8:	200005f4 	.word	0x200005f4
 8001cfc:	200005f8 	.word	0x200005f8

08001d00 <ui_draw_status>:
#include "draw.h"
#include <stdio.h>
#include <string.h>

void ui_draw_status(uint8_t hp, uint8_t hits, uint32_t score, uint32_t highscore)
{
 8001d00:	b580      	push	{r7, lr}
 8001d02:	b086      	sub	sp, #24
 8001d04:	af00      	add	r7, sp, #0
 8001d06:	60ba      	str	r2, [r7, #8]
 8001d08:	607b      	str	r3, [r7, #4]
 8001d0a:	4603      	mov	r3, r0
 8001d0c:	73fb      	strb	r3, [r7, #15]
 8001d0e:	460b      	mov	r3, r1
 8001d10:	73bb      	strb	r3, [r7, #14]
    printf("\x1B[2;3H");        // fast placering (som du havde)
 8001d12:	4810      	ldr	r0, [pc, #64]	; (8001d54 <ui_draw_status+0x54>)
 8001d14:	f001 fca4 	bl	8003660 <iprintf>
    printf("\x1B[2K");          // ryd hele linjen
 8001d18:	480f      	ldr	r0, [pc, #60]	; (8001d58 <ui_draw_status+0x58>)
 8001d1a:	f001 fca1 	bl	8003660 <iprintf>

    // HP som ###
    printf("HP: ");
 8001d1e:	480f      	ldr	r0, [pc, #60]	; (8001d5c <ui_draw_status+0x5c>)
 8001d20:	f001 fc9e 	bl	8003660 <iprintf>
    for (uint8_t i = 0; i < hp; i++)
 8001d24:	2300      	movs	r3, #0
 8001d26:	75fb      	strb	r3, [r7, #23]
 8001d28:	e005      	b.n	8001d36 <ui_draw_status+0x36>
        printf("\x1B[31m###\x1B[0m ");
 8001d2a:	480d      	ldr	r0, [pc, #52]	; (8001d60 <ui_draw_status+0x60>)
 8001d2c:	f001 fc98 	bl	8003660 <iprintf>
    for (uint8_t i = 0; i < hp; i++)
 8001d30:	7dfb      	ldrb	r3, [r7, #23]
 8001d32:	3301      	adds	r3, #1
 8001d34:	75fb      	strb	r3, [r7, #23]
 8001d36:	7dfa      	ldrb	r2, [r7, #23]
 8001d38:	7bfb      	ldrb	r3, [r7, #15]
 8001d3a:	429a      	cmp	r2, r3
 8001d3c:	d3f5      	bcc.n	8001d2a <ui_draw_status+0x2a>

    // Hits + score + high
    printf(" Hits: %u/5  Score: %lu  High: %lu",
 8001d3e:	7bb9      	ldrb	r1, [r7, #14]
 8001d40:	687b      	ldr	r3, [r7, #4]
 8001d42:	68ba      	ldr	r2, [r7, #8]
 8001d44:	4807      	ldr	r0, [pc, #28]	; (8001d64 <ui_draw_status+0x64>)
 8001d46:	f001 fc8b 	bl	8003660 <iprintf>
           (unsigned)hits,
           (unsigned long)score,
           (unsigned long)highscore);
}
 8001d4a:	bf00      	nop
 8001d4c:	3718      	adds	r7, #24
 8001d4e:	46bd      	mov	sp, r7
 8001d50:	bd80      	pop	{r7, pc}
 8001d52:	bf00      	nop
 8001d54:	08004e2c 	.word	0x08004e2c
 8001d58:	08004e34 	.word	0x08004e34
 8001d5c:	08004e3c 	.word	0x08004e3c
 8001d60:	08004e44 	.word	0x08004e44
 8001d64:	08004e54 	.word	0x08004e54

08001d68 <draw_game_over>:
void draw_game_over(uint32_t score, uint32_t highscore)
{
 8001d68:	b580      	push	{r7, lr}
 8001d6a:	b09e      	sub	sp, #120	; 0x78
 8001d6c:	af00      	add	r7, sp, #0
 8001d6e:	6078      	str	r0, [r7, #4]
 8001d70:	6039      	str	r1, [r7, #0]
    clrscr();
 8001d72:	f7ff f9f1 	bl	8001158 <clrscr>
    draw_border();
 8001d76:	f000 f90f 	bl	8001f98 <draw_border>
        " ##    ##   ## ##    #####    ######  ",
        " ##    ##    ###     ##       ##   ## ",
        "  ######      #      #######  ##   ## "
    };

    const int n = (int)(sizeof(lines)/sizeof(lines[0]));
 8001d7a:	230b      	movs	r3, #11
 8001d7c:	657b      	str	r3, [r7, #84]	; 0x54

    int maxlen = 0;
 8001d7e:	2300      	movs	r3, #0
 8001d80:	677b      	str	r3, [r7, #116]	; 0x74
    for (int i = 0; i < n; i++) {
 8001d82:	2300      	movs	r3, #0
 8001d84:	673b      	str	r3, [r7, #112]	; 0x70
 8001d86:	e017      	b.n	8001db8 <draw_game_over+0x50>
        int len = 0;
 8001d88:	2300      	movs	r3, #0
 8001d8a:	66fb      	str	r3, [r7, #108]	; 0x6c
        while (lines[i][len] != '\0') len++;
 8001d8c:	e002      	b.n	8001d94 <draw_game_over+0x2c>
 8001d8e:	6efb      	ldr	r3, [r7, #108]	; 0x6c
 8001d90:	3301      	adds	r3, #1
 8001d92:	66fb      	str	r3, [r7, #108]	; 0x6c
 8001d94:	4a40      	ldr	r2, [pc, #256]	; (8001e98 <draw_game_over+0x130>)
 8001d96:	6f3b      	ldr	r3, [r7, #112]	; 0x70
 8001d98:	f852 2023 	ldr.w	r2, [r2, r3, lsl #2]
 8001d9c:	6efb      	ldr	r3, [r7, #108]	; 0x6c
 8001d9e:	4413      	add	r3, r2
 8001da0:	781b      	ldrb	r3, [r3, #0]
 8001da2:	2b00      	cmp	r3, #0
 8001da4:	d1f3      	bne.n	8001d8e <draw_game_over+0x26>
        if (len > maxlen) maxlen = len;
 8001da6:	6efa      	ldr	r2, [r7, #108]	; 0x6c
 8001da8:	6f7b      	ldr	r3, [r7, #116]	; 0x74
 8001daa:	429a      	cmp	r2, r3
 8001dac:	dd01      	ble.n	8001db2 <draw_game_over+0x4a>
 8001dae:	6efb      	ldr	r3, [r7, #108]	; 0x6c
 8001db0:	677b      	str	r3, [r7, #116]	; 0x74
    for (int i = 0; i < n; i++) {
 8001db2:	6f3b      	ldr	r3, [r7, #112]	; 0x70
 8001db4:	3301      	adds	r3, #1
 8001db6:	673b      	str	r3, [r7, #112]	; 0x70
 8001db8:	6f3a      	ldr	r2, [r7, #112]	; 0x70
 8001dba:	6d7b      	ldr	r3, [r7, #84]	; 0x54
 8001dbc:	429a      	cmp	r2, r3
 8001dbe:	dbe3      	blt.n	8001d88 <draw_game_over+0x20>
    }

    int inner_w = SCREEN_COLS;
 8001dc0:	233c      	movs	r3, #60	; 0x3c
 8001dc2:	653b      	str	r3, [r7, #80]	; 0x50
    int inner_h = SCREEN_ROWS;
 8001dc4:	2328      	movs	r3, #40	; 0x28
 8001dc6:	64fb      	str	r3, [r7, #76]	; 0x4c

    int start_row = 2 + (inner_h - (n + 3)) / 2;
 8001dc8:	6d7b      	ldr	r3, [r7, #84]	; 0x54
 8001dca:	3303      	adds	r3, #3
 8001dcc:	6cfa      	ldr	r2, [r7, #76]	; 0x4c
 8001dce:	1ad3      	subs	r3, r2, r3
 8001dd0:	0fda      	lsrs	r2, r3, #31
 8001dd2:	4413      	add	r3, r2
 8001dd4:	105b      	asrs	r3, r3, #1
 8001dd6:	3302      	adds	r3, #2
 8001dd8:	66bb      	str	r3, [r7, #104]	; 0x68
    int start_col = 2 + (inner_w - maxlen) / 2;
 8001dda:	6d3a      	ldr	r2, [r7, #80]	; 0x50
 8001ddc:	6f7b      	ldr	r3, [r7, #116]	; 0x74
 8001dde:	1ad3      	subs	r3, r2, r3
 8001de0:	0fda      	lsrs	r2, r3, #31
 8001de2:	4413      	add	r3, r2
 8001de4:	105b      	asrs	r3, r3, #1
 8001de6:	3302      	adds	r3, #2
 8001de8:	667b      	str	r3, [r7, #100]	; 0x64

    if (start_row < 2) start_row = 2;
 8001dea:	6ebb      	ldr	r3, [r7, #104]	; 0x68
 8001dec:	2b01      	cmp	r3, #1
 8001dee:	dc01      	bgt.n	8001df4 <draw_game_over+0x8c>
 8001df0:	2302      	movs	r3, #2
 8001df2:	66bb      	str	r3, [r7, #104]	; 0x68
    if (start_col < 2) start_col = 2;
 8001df4:	6e7b      	ldr	r3, [r7, #100]	; 0x64
 8001df6:	2b01      	cmp	r3, #1
 8001df8:	dc01      	bgt.n	8001dfe <draw_game_over+0x96>
 8001dfa:	2302      	movs	r3, #2
 8001dfc:	667b      	str	r3, [r7, #100]	; 0x64

    printf("\x1B[31m");
 8001dfe:	4827      	ldr	r0, [pc, #156]	; (8001e9c <draw_game_over+0x134>)
 8001e00:	f001 fc2e 	bl	8003660 <iprintf>
    for (int i = 0; i < n; i++) {
 8001e04:	2300      	movs	r3, #0
 8001e06:	663b      	str	r3, [r7, #96]	; 0x60
 8001e08:	e00d      	b.n	8001e26 <draw_game_over+0xbe>
        printf("\x1B[%d;%dH%s", start_row + i, start_col, lines[i]);
 8001e0a:	6eba      	ldr	r2, [r7, #104]	; 0x68
 8001e0c:	6e3b      	ldr	r3, [r7, #96]	; 0x60
 8001e0e:	18d1      	adds	r1, r2, r3
 8001e10:	4a21      	ldr	r2, [pc, #132]	; (8001e98 <draw_game_over+0x130>)
 8001e12:	6e3b      	ldr	r3, [r7, #96]	; 0x60
 8001e14:	f852 3023 	ldr.w	r3, [r2, r3, lsl #2]
 8001e18:	6e7a      	ldr	r2, [r7, #100]	; 0x64
 8001e1a:	4821      	ldr	r0, [pc, #132]	; (8001ea0 <draw_game_over+0x138>)
 8001e1c:	f001 fc20 	bl	8003660 <iprintf>
    for (int i = 0; i < n; i++) {
 8001e20:	6e3b      	ldr	r3, [r7, #96]	; 0x60
 8001e22:	3301      	adds	r3, #1
 8001e24:	663b      	str	r3, [r7, #96]	; 0x60
 8001e26:	6e3a      	ldr	r2, [r7, #96]	; 0x60
 8001e28:	6d7b      	ldr	r3, [r7, #84]	; 0x54
 8001e2a:	429a      	cmp	r2, r3
 8001e2c:	dbed      	blt.n	8001e0a <draw_game_over+0xa2>
    }
    printf("\x1B[0m");
 8001e2e:	481d      	ldr	r0, [pc, #116]	; (8001ea4 <draw_game_over+0x13c>)
 8001e30:	f001 fc16 	bl	8003660 <iprintf>

    char scoreline[64];
    sprintf(scoreline, "Score: %lu   High: %lu",
 8001e34:	f107 000c 	add.w	r0, r7, #12
 8001e38:	683b      	ldr	r3, [r7, #0]
 8001e3a:	687a      	ldr	r2, [r7, #4]
 8001e3c:	491a      	ldr	r1, [pc, #104]	; (8001ea8 <draw_game_over+0x140>)
 8001e3e:	f001 fdc1 	bl	80039c4 <siprintf>
            (unsigned long)score,
            (unsigned long)highscore);

    int slen = 0; while (scoreline[slen] != '\0') slen++;
 8001e42:	2300      	movs	r3, #0
 8001e44:	65fb      	str	r3, [r7, #92]	; 0x5c
 8001e46:	e002      	b.n	8001e4e <draw_game_over+0xe6>
 8001e48:	6dfb      	ldr	r3, [r7, #92]	; 0x5c
 8001e4a:	3301      	adds	r3, #1
 8001e4c:	65fb      	str	r3, [r7, #92]	; 0x5c
 8001e4e:	f107 020c 	add.w	r2, r7, #12
 8001e52:	6dfb      	ldr	r3, [r7, #92]	; 0x5c
 8001e54:	4413      	add	r3, r2
 8001e56:	781b      	ldrb	r3, [r3, #0]
 8001e58:	2b00      	cmp	r3, #0
 8001e5a:	d1f5      	bne.n	8001e48 <draw_game_over+0xe0>
    int score_col = 2 + (inner_w - slen) / 2;
 8001e5c:	6d3a      	ldr	r2, [r7, #80]	; 0x50
 8001e5e:	6dfb      	ldr	r3, [r7, #92]	; 0x5c
 8001e60:	1ad3      	subs	r3, r2, r3
 8001e62:	0fda      	lsrs	r2, r3, #31
 8001e64:	4413      	add	r3, r2
 8001e66:	105b      	asrs	r3, r3, #1
 8001e68:	3302      	adds	r3, #2
 8001e6a:	65bb      	str	r3, [r7, #88]	; 0x58
    if (score_col < 2) score_col = 2;
 8001e6c:	6dbb      	ldr	r3, [r7, #88]	; 0x58
 8001e6e:	2b01      	cmp	r3, #1
 8001e70:	dc01      	bgt.n	8001e76 <draw_game_over+0x10e>
 8001e72:	2302      	movs	r3, #2
 8001e74:	65bb      	str	r3, [r7, #88]	; 0x58

    printf("\x1B[%d;%dH%s", start_row + n + 2, score_col, scoreline);
 8001e76:	6eba      	ldr	r2, [r7, #104]	; 0x68
 8001e78:	6d7b      	ldr	r3, [r7, #84]	; 0x54
 8001e7a:	4413      	add	r3, r2
 8001e7c:	1c99      	adds	r1, r3, #2
 8001e7e:	f107 030c 	add.w	r3, r7, #12
 8001e82:	6dba      	ldr	r2, [r7, #88]	; 0x58
 8001e84:	4806      	ldr	r0, [pc, #24]	; (8001ea0 <draw_game_over+0x138>)
 8001e86:	f001 fbeb 	bl	8003660 <iprintf>

    printf("\x1B[?25h");
 8001e8a:	4808      	ldr	r0, [pc, #32]	; (8001eac <draw_game_over+0x144>)
 8001e8c:	f001 fbe8 	bl	8003660 <iprintf>
}
 8001e90:	bf00      	nop
 8001e92:	3778      	adds	r7, #120	; 0x78
 8001e94:	46bd      	mov	sp, r7
 8001e96:	bd80      	pop	{r7, pc}
 8001e98:	2000002c 	.word	0x2000002c
 8001e9c:	08004e78 	.word	0x08004e78
 8001ea0:	08004e80 	.word	0x08004e80
 8001ea4:	08004e8c 	.word	0x08004e8c
 8001ea8:	08004e94 	.word	0x08004e94
 8001eac:	08004eac 	.word	0x08004eac

08001eb0 <draw_buffer>:


void draw_buffer(uint8_t current[][SCREEN_COLS], uint8_t shadow_buffer[][SCREEN_COLS])
{
 8001eb0:	b580      	push	{r7, lr}
 8001eb2:	b084      	sub	sp, #16
 8001eb4:	af00      	add	r7, sp, #0
 8001eb6:	6078      	str	r0, [r7, #4]
 8001eb8:	6039      	str	r1, [r7, #0]
    for (int r = 0; r < SCREEN_ROWS; r++) {
 8001eba:	2300      	movs	r3, #0
 8001ebc:	60fb      	str	r3, [r7, #12]
 8001ebe:	e054      	b.n	8001f6a <draw_buffer+0xba>
        for (int c = 0; c < SCREEN_COLS; c++) {
 8001ec0:	2300      	movs	r3, #0
 8001ec2:	60bb      	str	r3, [r7, #8]
 8001ec4:	e04b      	b.n	8001f5e <draw_buffer+0xae>
            if (current[r][c] != shadow_buffer[r][c]) {
 8001ec6:	68fa      	ldr	r2, [r7, #12]
 8001ec8:	4613      	mov	r3, r2
 8001eca:	011b      	lsls	r3, r3, #4
 8001ecc:	1a9b      	subs	r3, r3, r2
 8001ece:	009b      	lsls	r3, r3, #2
 8001ed0:	461a      	mov	r2, r3
 8001ed2:	687b      	ldr	r3, [r7, #4]
 8001ed4:	441a      	add	r2, r3
 8001ed6:	68bb      	ldr	r3, [r7, #8]
 8001ed8:	4413      	add	r3, r2
 8001eda:	7819      	ldrb	r1, [r3, #0]
 8001edc:	68fa      	ldr	r2, [r7, #12]
 8001ede:	4613      	mov	r3, r2
 8001ee0:	011b      	lsls	r3, r3, #4
 8001ee2:	1a9b      	subs	r3, r3, r2
 8001ee4:	009b      	lsls	r3, r3, #2
 8001ee6:	461a      	mov	r2, r3
 8001ee8:	683b      	ldr	r3, [r7, #0]
 8001eea:	441a      	add	r2, r3
 8001eec:	68bb      	ldr	r3, [r7, #8]
 8001eee:	4413      	add	r3, r2
 8001ef0:	781b      	ldrb	r3, [r3, #0]
 8001ef2:	4299      	cmp	r1, r3
 8001ef4:	d030      	beq.n	8001f58 <draw_buffer+0xa8>
                gotoxy(c + BOARD_OFFSET, r + BOARD_OFFSET);
 8001ef6:	68bb      	ldr	r3, [r7, #8]
 8001ef8:	b2db      	uxtb	r3, r3
 8001efa:	3302      	adds	r3, #2
 8001efc:	b2da      	uxtb	r2, r3
 8001efe:	68fb      	ldr	r3, [r7, #12]
 8001f00:	b2db      	uxtb	r3, r3
 8001f02:	3302      	adds	r3, #2
 8001f04:	b2db      	uxtb	r3, r3
 8001f06:	4619      	mov	r1, r3
 8001f08:	4610      	mov	r0, r2
 8001f0a:	f7ff f92f 	bl	800116c <gotoxy>
                putchar(current[r][c]);
 8001f0e:	68fa      	ldr	r2, [r7, #12]
 8001f10:	4613      	mov	r3, r2
 8001f12:	011b      	lsls	r3, r3, #4
 8001f14:	1a9b      	subs	r3, r3, r2
 8001f16:	009b      	lsls	r3, r3, #2
 8001f18:	461a      	mov	r2, r3
 8001f1a:	687b      	ldr	r3, [r7, #4]
 8001f1c:	441a      	add	r2, r3
 8001f1e:	68bb      	ldr	r3, [r7, #8]
 8001f20:	4413      	add	r3, r2
 8001f22:	781b      	ldrb	r3, [r3, #0]
 8001f24:	4618      	mov	r0, r3
 8001f26:	f001 fbb3 	bl	8003690 <putchar>
                shadow_buffer[r][c] = current[r][c];
 8001f2a:	68fa      	ldr	r2, [r7, #12]
 8001f2c:	4613      	mov	r3, r2
 8001f2e:	011b      	lsls	r3, r3, #4
 8001f30:	1a9b      	subs	r3, r3, r2
 8001f32:	009b      	lsls	r3, r3, #2
 8001f34:	461a      	mov	r2, r3
 8001f36:	687b      	ldr	r3, [r7, #4]
 8001f38:	1899      	adds	r1, r3, r2
 8001f3a:	68fa      	ldr	r2, [r7, #12]
 8001f3c:	4613      	mov	r3, r2
 8001f3e:	011b      	lsls	r3, r3, #4
 8001f40:	1a9b      	subs	r3, r3, r2
 8001f42:	009b      	lsls	r3, r3, #2
 8001f44:	461a      	mov	r2, r3
 8001f46:	683b      	ldr	r3, [r7, #0]
 8001f48:	441a      	add	r2, r3
 8001f4a:	68bb      	ldr	r3, [r7, #8]
 8001f4c:	440b      	add	r3, r1
 8001f4e:	7819      	ldrb	r1, [r3, #0]
 8001f50:	68bb      	ldr	r3, [r7, #8]
 8001f52:	4413      	add	r3, r2
 8001f54:	460a      	mov	r2, r1
 8001f56:	701a      	strb	r2, [r3, #0]
        for (int c = 0; c < SCREEN_COLS; c++) {
 8001f58:	68bb      	ldr	r3, [r7, #8]
 8001f5a:	3301      	adds	r3, #1
 8001f5c:	60bb      	str	r3, [r7, #8]
 8001f5e:	68bb      	ldr	r3, [r7, #8]
 8001f60:	2b3b      	cmp	r3, #59	; 0x3b
 8001f62:	ddb0      	ble.n	8001ec6 <draw_buffer+0x16>
    for (int r = 0; r < SCREEN_ROWS; r++) {
 8001f64:	68fb      	ldr	r3, [r7, #12]
 8001f66:	3301      	adds	r3, #1
 8001f68:	60fb      	str	r3, [r7, #12]
 8001f6a:	68fb      	ldr	r3, [r7, #12]
 8001f6c:	2b27      	cmp	r3, #39	; 0x27
 8001f6e:	dda7      	ble.n	8001ec0 <draw_buffer+0x10>
            }
        }
    }
}
 8001f70:	bf00      	nop
 8001f72:	bf00      	nop
 8001f74:	3710      	adds	r7, #16
 8001f76:	46bd      	mov	sp, r7
 8001f78:	bd80      	pop	{r7, pc}

08001f7a <clear_buffer>:

void clear_buffer(uint8_t current_buffer[][SCREEN_COLS])
{
 8001f7a:	b580      	push	{r7, lr}
 8001f7c:	b082      	sub	sp, #8
 8001f7e:	af00      	add	r7, sp, #0
 8001f80:	6078      	str	r0, [r7, #4]
    memset(current_buffer, ' ', SCREEN_ROWS * SCREEN_COLS);
 8001f82:	f44f 6216 	mov.w	r2, #2400	; 0x960
 8001f86:	2120      	movs	r1, #32
 8001f88:	6878      	ldr	r0, [r7, #4]
 8001f8a:	f001 fb61 	bl	8003650 <memset>
}
 8001f8e:	bf00      	nop
 8001f90:	3708      	adds	r7, #8
 8001f92:	46bd      	mov	sp, r7
 8001f94:	bd80      	pop	{r7, pc}
	...

08001f98 <draw_border>:

void draw_border(void)
{
 8001f98:	b580      	push	{r7, lr}
 8001f9a:	b084      	sub	sp, #16
 8001f9c:	af00      	add	r7, sp, #0
    gotoxy(1, 1);
 8001f9e:	2101      	movs	r1, #1
 8001fa0:	2001      	movs	r0, #1
 8001fa2:	f7ff f8e3 	bl	800116c <gotoxy>

    printf("\xC9");
 8001fa6:	f06f 0036 	mvn.w	r0, #54	; 0x36
 8001faa:	f001 fb71 	bl	8003690 <putchar>
    for (int i = 0; i < SCREEN_COLS; i++) printf("\xCD");
 8001fae:	2300      	movs	r3, #0
 8001fb0:	60fb      	str	r3, [r7, #12]
 8001fb2:	e006      	b.n	8001fc2 <draw_border+0x2a>
 8001fb4:	f06f 0032 	mvn.w	r0, #50	; 0x32
 8001fb8:	f001 fb6a 	bl	8003690 <putchar>
 8001fbc:	68fb      	ldr	r3, [r7, #12]
 8001fbe:	3301      	adds	r3, #1
 8001fc0:	60fb      	str	r3, [r7, #12]
 8001fc2:	68fb      	ldr	r3, [r7, #12]
 8001fc4:	2b3b      	cmp	r3, #59	; 0x3b
 8001fc6:	ddf5      	ble.n	8001fb4 <draw_border+0x1c>
    printf("\xBB\n");
 8001fc8:	481b      	ldr	r0, [pc, #108]	; (8002038 <draw_border+0xa0>)
 8001fca:	f001 fbe5 	bl	8003798 <puts>

    for (int r = 0; r < SCREEN_ROWS; r++) {
 8001fce:	2300      	movs	r3, #0
 8001fd0:	60bb      	str	r3, [r7, #8]
 8001fd2:	e015      	b.n	8002000 <draw_border+0x68>
        printf("\xBA");
 8001fd4:	f06f 0045 	mvn.w	r0, #69	; 0x45
 8001fd8:	f001 fb5a 	bl	8003690 <putchar>
        for (int c = 0; c < SCREEN_COLS; c++) printf(" ");
 8001fdc:	2300      	movs	r3, #0
 8001fde:	607b      	str	r3, [r7, #4]
 8001fe0:	e005      	b.n	8001fee <draw_border+0x56>
 8001fe2:	2020      	movs	r0, #32
 8001fe4:	f001 fb54 	bl	8003690 <putchar>
 8001fe8:	687b      	ldr	r3, [r7, #4]
 8001fea:	3301      	adds	r3, #1
 8001fec:	607b      	str	r3, [r7, #4]
 8001fee:	687b      	ldr	r3, [r7, #4]
 8001ff0:	2b3b      	cmp	r3, #59	; 0x3b
 8001ff2:	ddf6      	ble.n	8001fe2 <draw_border+0x4a>
        printf("\xBA\n");
 8001ff4:	4811      	ldr	r0, [pc, #68]	; (800203c <draw_border+0xa4>)
 8001ff6:	f001 fbcf 	bl	8003798 <puts>
    for (int r = 0; r < SCREEN_ROWS; r++) {
 8001ffa:	68bb      	ldr	r3, [r7, #8]
 8001ffc:	3301      	adds	r3, #1
 8001ffe:	60bb      	str	r3, [r7, #8]
 8002000:	68bb      	ldr	r3, [r7, #8]
 8002002:	2b27      	cmp	r3, #39	; 0x27
 8002004:	dde6      	ble.n	8001fd4 <draw_border+0x3c>
    }

    printf("\xC8");
 8002006:	f06f 0037 	mvn.w	r0, #55	; 0x37
 800200a:	f001 fb41 	bl	8003690 <putchar>
    for (int i = 0; i < SCREEN_COLS; i++) printf("\xCD");
 800200e:	2300      	movs	r3, #0
 8002010:	603b      	str	r3, [r7, #0]
 8002012:	e006      	b.n	8002022 <draw_border+0x8a>
 8002014:	f06f 0032 	mvn.w	r0, #50	; 0x32
 8002018:	f001 fb3a 	bl	8003690 <putchar>
 800201c:	683b      	ldr	r3, [r7, #0]
 800201e:	3301      	adds	r3, #1
 8002020:	603b      	str	r3, [r7, #0]
 8002022:	683b      	ldr	r3, [r7, #0]
 8002024:	2b3b      	cmp	r3, #59	; 0x3b
 8002026:	ddf5      	ble.n	8002014 <draw_border+0x7c>
    printf("\xBC\n");
 8002028:	4805      	ldr	r0, [pc, #20]	; (8002040 <draw_border+0xa8>)
 800202a:	f001 fbb5 	bl	8003798 <puts>
}
 800202e:	bf00      	nop
 8002030:	3710      	adds	r7, #16
 8002032:	46bd      	mov	sp, r7
 8002034:	bd80      	pop	{r7, pc}
 8002036:	bf00      	nop
 8002038:	08004eb4 	.word	0x08004eb4
 800203c:	08004eb8 	.word	0x08004eb8
 8002040:	08004ebc 	.word	0x08004ebc

08002044 <bonus_exists>:
#include <stdint.h>
#include <stdlib.h>   // rand()
#include "bullet.h"

static uint8_t bonus_exists(enemy enemy_pool[])
{
 8002044:	b480      	push	{r7}
 8002046:	b085      	sub	sp, #20
 8002048:	af00      	add	r7, sp, #0
 800204a:	6078      	str	r0, [r7, #4]
    for (int i = 0; i < MAX_ENEMIES; i++)
 800204c:	2300      	movs	r3, #0
 800204e:	60fb      	str	r3, [r7, #12]
 8002050:	e01a      	b.n	8002088 <bonus_exists+0x44>
    {
        if (enemy_pool[i].alive && enemy_pool[i].has_bonus)
 8002052:	68fa      	ldr	r2, [r7, #12]
 8002054:	4613      	mov	r3, r2
 8002056:	009b      	lsls	r3, r3, #2
 8002058:	4413      	add	r3, r2
 800205a:	005b      	lsls	r3, r3, #1
 800205c:	461a      	mov	r2, r3
 800205e:	687b      	ldr	r3, [r7, #4]
 8002060:	4413      	add	r3, r2
 8002062:	79db      	ldrb	r3, [r3, #7]
 8002064:	2b00      	cmp	r3, #0
 8002066:	d00c      	beq.n	8002082 <bonus_exists+0x3e>
 8002068:	68fa      	ldr	r2, [r7, #12]
 800206a:	4613      	mov	r3, r2
 800206c:	009b      	lsls	r3, r3, #2
 800206e:	4413      	add	r3, r2
 8002070:	005b      	lsls	r3, r3, #1
 8002072:	461a      	mov	r2, r3
 8002074:	687b      	ldr	r3, [r7, #4]
 8002076:	4413      	add	r3, r2
 8002078:	7a1b      	ldrb	r3, [r3, #8]
 800207a:	2b00      	cmp	r3, #0
 800207c:	d001      	beq.n	8002082 <bonus_exists+0x3e>
            return 1;
 800207e:	2301      	movs	r3, #1
 8002080:	e006      	b.n	8002090 <bonus_exists+0x4c>
    for (int i = 0; i < MAX_ENEMIES; i++)
 8002082:	68fb      	ldr	r3, [r7, #12]
 8002084:	3301      	adds	r3, #1
 8002086:	60fb      	str	r3, [r7, #12]
 8002088:	68fb      	ldr	r3, [r7, #12]
 800208a:	2b04      	cmp	r3, #4
 800208c:	dde1      	ble.n	8002052 <bonus_exists+0xe>
    }
    return 0;
 800208e:	2300      	movs	r3, #0
}
 8002090:	4618      	mov	r0, r3
 8002092:	3714      	adds	r7, #20
 8002094:	46bd      	mov	sp, r7
 8002096:	f85d 7b04 	ldr.w	r7, [sp], #4
 800209a:	4770      	bx	lr

0800209c <bonus_spawn_tick>:
/* bonus_ready siger "cooldown frdig, bonus m forsges" */
static int bonus_spawn_ticks_left = 10800; // ~3 min ved 60 ticks/s
static uint8_t bonus_ready = 0;

void bonus_spawn_tick(enemy enemy_pool[])
{
 800209c:	b580      	push	{r7, lr}
 800209e:	b082      	sub	sp, #8
 80020a0:	af00      	add	r7, sp, #0
 80020a2:	6078      	str	r0, [r7, #4]
    // hvis der allerede er en bonus enemy p skrmen, gr ingenting
    if (bonus_exists(enemy_pool))
 80020a4:	6878      	ldr	r0, [r7, #4]
 80020a6:	f7ff ffcd 	bl	8002044 <bonus_exists>
 80020aa:	4603      	mov	r3, r0
 80020ac:	2b00      	cmp	r3, #0
 80020ae:	d10d      	bne.n	80020cc <bonus_spawn_tick+0x30>
        return;

    if (bonus_spawn_ticks_left > 0)
 80020b0:	4b08      	ldr	r3, [pc, #32]	; (80020d4 <bonus_spawn_tick+0x38>)
 80020b2:	681b      	ldr	r3, [r3, #0]
 80020b4:	2b00      	cmp	r3, #0
 80020b6:	dd05      	ble.n	80020c4 <bonus_spawn_tick+0x28>
    {
        bonus_spawn_ticks_left--;
 80020b8:	4b06      	ldr	r3, [pc, #24]	; (80020d4 <bonus_spawn_tick+0x38>)
 80020ba:	681b      	ldr	r3, [r3, #0]
 80020bc:	3b01      	subs	r3, #1
 80020be:	4a05      	ldr	r2, [pc, #20]	; (80020d4 <bonus_spawn_tick+0x38>)
 80020c0:	6013      	str	r3, [r2, #0]
        return;
 80020c2:	e004      	b.n	80020ce <bonus_spawn_tick+0x32>
    }

    // cooldown frdig -> nu m bonus forsges p kommende spawns
    bonus_ready = 1;
 80020c4:	4b04      	ldr	r3, [pc, #16]	; (80020d8 <bonus_spawn_tick+0x3c>)
 80020c6:	2201      	movs	r2, #1
 80020c8:	701a      	strb	r2, [r3, #0]
 80020ca:	e000      	b.n	80020ce <bonus_spawn_tick+0x32>
        return;
 80020cc:	bf00      	nop
}
 80020ce:	3708      	adds	r7, #8
 80020d0:	46bd      	mov	sp, r7
 80020d2:	bd80      	pop	{r7, pc}
 80020d4:	20000058 	.word	0x20000058
 80020d8:	200005fa 	.word	0x200005fa

080020dc <enemies_spawn>:

/* =========================
   SPAWN: spawn en HEL rkke ad gangen (som din gamle)
   ========================= */
void enemies_spawn(enemy enemy_pool[])
{
 80020dc:	b580      	push	{r7, lr}
 80020de:	b088      	sub	sp, #32
 80020e0:	af00      	add	r7, sp, #0
 80020e2:	6078      	str	r0, [r7, #4]
    // justr her hvis du vil have flere/frre pr rkke
    const int SPAWN_AMOUNT = 6;
 80020e4:	2306      	movs	r3, #6
 80020e6:	613b      	str	r3, [r7, #16]
    const int SPAWN_STEP   = 10;
 80020e8:	230a      	movs	r3, #10
 80020ea:	60fb      	str	r3, [r7, #12]

    int spawn_x = 2;   // start altid samme sted (stabil rkke)
 80020ec:	2302      	movs	r3, #2
 80020ee:	61fb      	str	r3, [r7, #28]

    for (int n = 0; n < SPAWN_AMOUNT; n++)
 80020f0:	2300      	movs	r3, #0
 80020f2:	61bb      	str	r3, [r7, #24]
 80020f4:	e074      	b.n	80021e0 <enemies_spawn+0x104>
    {
        // find en ledig plads i poolen
        for (int i = 0; i < MAX_ENEMIES; i++)
 80020f6:	2300      	movs	r3, #0
 80020f8:	617b      	str	r3, [r7, #20]
 80020fa:	e062      	b.n	80021c2 <enemies_spawn+0xe6>
        {
            if (!enemy_pool[i].alive)
 80020fc:	697a      	ldr	r2, [r7, #20]
 80020fe:	4613      	mov	r3, r2
 8002100:	009b      	lsls	r3, r3, #2
 8002102:	4413      	add	r3, r2
 8002104:	005b      	lsls	r3, r3, #1
 8002106:	461a      	mov	r2, r3
 8002108:	687b      	ldr	r3, [r7, #4]
 800210a:	4413      	add	r3, r2
 800210c:	79db      	ldrb	r3, [r3, #7]
 800210e:	2b00      	cmp	r3, #0
 8002110:	d154      	bne.n	80021bc <enemies_spawn+0xe0>
            {
                enemy_pool[i].alive = 1;
 8002112:	697a      	ldr	r2, [r7, #20]
 8002114:	4613      	mov	r3, r2
 8002116:	009b      	lsls	r3, r3, #2
 8002118:	4413      	add	r3, r2
 800211a:	005b      	lsls	r3, r3, #1
 800211c:	461a      	mov	r2, r3
 800211e:	687b      	ldr	r3, [r7, #4]
 8002120:	4413      	add	r3, r2
 8002122:	2201      	movs	r2, #1
 8002124:	71da      	strb	r2, [r3, #7]
                enemy_pool[i].has_bonus = 0;
 8002126:	697a      	ldr	r2, [r7, #20]
 8002128:	4613      	mov	r3, r2
 800212a:	009b      	lsls	r3, r3, #2
 800212c:	4413      	add	r3, r2
 800212e:	005b      	lsls	r3, r3, #1
 8002130:	461a      	mov	r2, r3
 8002132:	687b      	ldr	r3, [r7, #4]
 8002134:	4413      	add	r3, r2
 8002136:	2200      	movs	r2, #0
 8002138:	721a      	strb	r2, [r3, #8]

                // Spawn position: samme y for hele rkken
                enemy_pool[i].x = spawn_x;
 800213a:	697a      	ldr	r2, [r7, #20]
 800213c:	4613      	mov	r3, r2
 800213e:	009b      	lsls	r3, r3, #2
 8002140:	4413      	add	r3, r2
 8002142:	005b      	lsls	r3, r3, #1
 8002144:	461a      	mov	r2, r3
 8002146:	687b      	ldr	r3, [r7, #4]
 8002148:	4413      	add	r3, r2
 800214a:	69fa      	ldr	r2, [r7, #28]
 800214c:	b292      	uxth	r2, r2
 800214e:	801a      	strh	r2, [r3, #0]
                enemy_pool[i].y = 4;
 8002150:	697a      	ldr	r2, [r7, #20]
 8002152:	4613      	mov	r3, r2
 8002154:	009b      	lsls	r3, r3, #2
 8002156:	4413      	add	r3, r2
 8002158:	005b      	lsls	r3, r3, #1
 800215a:	461a      	mov	r2, r3
 800215c:	687b      	ldr	r3, [r7, #4]
 800215e:	4413      	add	r3, r2
 8002160:	2204      	movs	r2, #4
 8002162:	805a      	strh	r2, [r3, #2]

                // bonus er sjlden og kun efter cooldown
                if (bonus_ready && !bonus_exists(enemy_pool))
 8002164:	4b23      	ldr	r3, [pc, #140]	; (80021f4 <enemies_spawn+0x118>)
 8002166:	781b      	ldrb	r3, [r3, #0]
 8002168:	2b00      	cmp	r3, #0
 800216a:	d02e      	beq.n	80021ca <enemies_spawn+0xee>
 800216c:	6878      	ldr	r0, [r7, #4]
 800216e:	f7ff ff69 	bl	8002044 <bonus_exists>
 8002172:	4603      	mov	r3, r0
 8002174:	2b00      	cmp	r3, #0
 8002176:	d128      	bne.n	80021ca <enemies_spawn+0xee>
                {
                    if ((rand() % 20) == 0)
 8002178:	f001 fb16 	bl	80037a8 <rand>
 800217c:	4601      	mov	r1, r0
 800217e:	4b1e      	ldr	r3, [pc, #120]	; (80021f8 <enemies_spawn+0x11c>)
 8002180:	fb83 2301 	smull	r2, r3, r3, r1
 8002184:	10da      	asrs	r2, r3, #3
 8002186:	17cb      	asrs	r3, r1, #31
 8002188:	1ad2      	subs	r2, r2, r3
 800218a:	4613      	mov	r3, r2
 800218c:	009b      	lsls	r3, r3, #2
 800218e:	4413      	add	r3, r2
 8002190:	009b      	lsls	r3, r3, #2
 8002192:	1aca      	subs	r2, r1, r3
 8002194:	2a00      	cmp	r2, #0
 8002196:	d118      	bne.n	80021ca <enemies_spawn+0xee>
                    {
                        enemy_pool[i].has_bonus = 1;
 8002198:	697a      	ldr	r2, [r7, #20]
 800219a:	4613      	mov	r3, r2
 800219c:	009b      	lsls	r3, r3, #2
 800219e:	4413      	add	r3, r2
 80021a0:	005b      	lsls	r3, r3, #1
 80021a2:	461a      	mov	r2, r3
 80021a4:	687b      	ldr	r3, [r7, #4]
 80021a6:	4413      	add	r3, r2
 80021a8:	2201      	movs	r2, #1
 80021aa:	721a      	strb	r2, [r3, #8]

                        // reset: tidligst ny bonus om ~3 min igen
                        bonus_ready = 0;
 80021ac:	4b11      	ldr	r3, [pc, #68]	; (80021f4 <enemies_spawn+0x118>)
 80021ae:	2200      	movs	r2, #0
 80021b0:	701a      	strb	r2, [r3, #0]
                        bonus_spawn_ticks_left = 10800;
 80021b2:	4b12      	ldr	r3, [pc, #72]	; (80021fc <enemies_spawn+0x120>)
 80021b4:	f642 2230 	movw	r2, #10800	; 0x2a30
 80021b8:	601a      	str	r2, [r3, #0]
                    }
                }

                break; // ud af "find slot" loop
 80021ba:	e006      	b.n	80021ca <enemies_spawn+0xee>
        for (int i = 0; i < MAX_ENEMIES; i++)
 80021bc:	697b      	ldr	r3, [r7, #20]
 80021be:	3301      	adds	r3, #1
 80021c0:	617b      	str	r3, [r7, #20]
 80021c2:	697b      	ldr	r3, [r7, #20]
 80021c4:	2b04      	cmp	r3, #4
 80021c6:	dd99      	ble.n	80020fc <enemies_spawn+0x20>
 80021c8:	e000      	b.n	80021cc <enemies_spawn+0xf0>
                break; // ud af "find slot" loop
 80021ca:	bf00      	nop
            }
        }

        // nste enemy i rkken
        spawn_x += SPAWN_STEP;
 80021cc:	69fa      	ldr	r2, [r7, #28]
 80021ce:	68fb      	ldr	r3, [r7, #12]
 80021d0:	4413      	add	r3, r2
 80021d2:	61fb      	str	r3, [r7, #28]

        // stop hvis vi ikke har mere plads p linjen
        if (spawn_x > (SCREEN_COLS - 6))
 80021d4:	69fb      	ldr	r3, [r7, #28]
 80021d6:	2b36      	cmp	r3, #54	; 0x36
 80021d8:	dc07      	bgt.n	80021ea <enemies_spawn+0x10e>
    for (int n = 0; n < SPAWN_AMOUNT; n++)
 80021da:	69bb      	ldr	r3, [r7, #24]
 80021dc:	3301      	adds	r3, #1
 80021de:	61bb      	str	r3, [r7, #24]
 80021e0:	69ba      	ldr	r2, [r7, #24]
 80021e2:	693b      	ldr	r3, [r7, #16]
 80021e4:	429a      	cmp	r2, r3
 80021e6:	db86      	blt.n	80020f6 <enemies_spawn+0x1a>
            break;
    }
}
 80021e8:	e000      	b.n	80021ec <enemies_spawn+0x110>
            break;
 80021ea:	bf00      	nop
}
 80021ec:	bf00      	nop
 80021ee:	3720      	adds	r7, #32
 80021f0:	46bd      	mov	sp, r7
 80021f2:	bd80      	pop	{r7, pc}
 80021f4:	200005fa 	.word	0x200005fa
 80021f8:	66666667 	.word	0x66666667
 80021fc:	20000058 	.word	0x20000058

08002200 <enemies_update_pos>:

void enemies_update_pos(enemy enemy_pool[])
{
 8002200:	b480      	push	{r7}
 8002202:	b085      	sub	sp, #20
 8002204:	af00      	add	r7, sp, #0
 8002206:	6078      	str	r0, [r7, #4]
    for (int e = 0; e < MAX_ENEMIES; e++)
 8002208:	2300      	movs	r3, #0
 800220a:	60fb      	str	r3, [r7, #12]
 800220c:	e038      	b.n	8002280 <enemies_update_pos+0x80>
    {
        if (!enemy_pool[e].alive)
 800220e:	68fa      	ldr	r2, [r7, #12]
 8002210:	4613      	mov	r3, r2
 8002212:	009b      	lsls	r3, r3, #2
 8002214:	4413      	add	r3, r2
 8002216:	005b      	lsls	r3, r3, #1
 8002218:	461a      	mov	r2, r3
 800221a:	687b      	ldr	r3, [r7, #4]
 800221c:	4413      	add	r3, r2
 800221e:	79db      	ldrb	r3, [r3, #7]
 8002220:	2b00      	cmp	r3, #0
 8002222:	d029      	beq.n	8002278 <enemies_update_pos+0x78>
            continue;

        // Simpel falder ned
        enemy_pool[e].y += 1;
 8002224:	68fa      	ldr	r2, [r7, #12]
 8002226:	4613      	mov	r3, r2
 8002228:	009b      	lsls	r3, r3, #2
 800222a:	4413      	add	r3, r2
 800222c:	005b      	lsls	r3, r3, #1
 800222e:	461a      	mov	r2, r3
 8002230:	687b      	ldr	r3, [r7, #4]
 8002232:	4413      	add	r3, r2
 8002234:	8859      	ldrh	r1, [r3, #2]
 8002236:	68fa      	ldr	r2, [r7, #12]
 8002238:	4613      	mov	r3, r2
 800223a:	009b      	lsls	r3, r3, #2
 800223c:	4413      	add	r3, r2
 800223e:	005b      	lsls	r3, r3, #1
 8002240:	461a      	mov	r2, r3
 8002242:	687b      	ldr	r3, [r7, #4]
 8002244:	4413      	add	r3, r2
 8002246:	1c4a      	adds	r2, r1, #1
 8002248:	b292      	uxth	r2, r2
 800224a:	805a      	strh	r2, [r3, #2]

        // Hvis den gr for langt ned, fjern den
#ifdef PLAYER_COLLISION_LINE
        if (enemy_pool[e].y >= PLAYER_COLLISION_LINE)
 800224c:	68fa      	ldr	r2, [r7, #12]
 800224e:	4613      	mov	r3, r2
 8002250:	009b      	lsls	r3, r3, #2
 8002252:	4413      	add	r3, r2
 8002254:	005b      	lsls	r3, r3, #1
 8002256:	461a      	mov	r2, r3
 8002258:	687b      	ldr	r3, [r7, #4]
 800225a:	4413      	add	r3, r2
 800225c:	885b      	ldrh	r3, [r3, #2]
 800225e:	2b22      	cmp	r3, #34	; 0x22
 8002260:	d90b      	bls.n	800227a <enemies_update_pos+0x7a>
            enemy_pool[e].alive = 0;
 8002262:	68fa      	ldr	r2, [r7, #12]
 8002264:	4613      	mov	r3, r2
 8002266:	009b      	lsls	r3, r3, #2
 8002268:	4413      	add	r3, r2
 800226a:	005b      	lsls	r3, r3, #1
 800226c:	461a      	mov	r2, r3
 800226e:	687b      	ldr	r3, [r7, #4]
 8002270:	4413      	add	r3, r2
 8002272:	2200      	movs	r2, #0
 8002274:	71da      	strb	r2, [r3, #7]
 8002276:	e000      	b.n	800227a <enemies_update_pos+0x7a>
            continue;
 8002278:	bf00      	nop
    for (int e = 0; e < MAX_ENEMIES; e++)
 800227a:	68fb      	ldr	r3, [r7, #12]
 800227c:	3301      	adds	r3, #1
 800227e:	60fb      	str	r3, [r7, #12]
 8002280:	68fb      	ldr	r3, [r7, #12]
 8002282:	2b04      	cmp	r3, #4
 8002284:	ddc3      	ble.n	800220e <enemies_update_pos+0xe>
#else
        if (enemy_pool[e].y >= (SCREEN_ROWS - 1))
            enemy_pool[e].alive = 0;
#endif
    }
}
 8002286:	bf00      	nop
 8002288:	bf00      	nop
 800228a:	3714      	adds	r7, #20
 800228c:	46bd      	mov	sp, r7
 800228e:	f85d 7b04 	ldr.w	r7, [sp], #4
 8002292:	4770      	bx	lr

08002294 <enemies_push_buffer>:

void enemies_push_buffer(uint8_t buffer[SCREEN_ROWS][SCREEN_COLS], enemy enemy_pool[])
{
 8002294:	b490      	push	{r4, r7}
 8002296:	b08c      	sub	sp, #48	; 0x30
 8002298:	af00      	add	r7, sp, #0
 800229a:	6078      	str	r0, [r7, #4]
 800229c:	6039      	str	r1, [r7, #0]
    uint8_t alien_lasher[3][5] = {
 800229e:	4b3e      	ldr	r3, [pc, #248]	; (8002398 <enemies_push_buffer+0x104>)
 80022a0:	f107 040c 	add.w	r4, r7, #12
 80022a4:	cb0f      	ldmia	r3, {r0, r1, r2, r3}
 80022a6:	c407      	stmia	r4!, {r0, r1, r2}
 80022a8:	8023      	strh	r3, [r4, #0]
 80022aa:	3402      	adds	r4, #2
 80022ac:	0c1b      	lsrs	r3, r3, #16
 80022ae:	7023      	strb	r3, [r4, #0]
        {'(','X','X','X',')'},
        {')',' ','X',' ','('},
        {'(','X','V','X',')'},
    };

    for (int e = 0; e < MAX_ENEMIES; e++)
 80022b0:	2300      	movs	r3, #0
 80022b2:	62fb      	str	r3, [r7, #44]	; 0x2c
 80022b4:	e066      	b.n	8002384 <enemies_push_buffer+0xf0>
    {
        if (!enemy_pool[e].alive)
 80022b6:	6afa      	ldr	r2, [r7, #44]	; 0x2c
 80022b8:	4613      	mov	r3, r2
 80022ba:	009b      	lsls	r3, r3, #2
 80022bc:	4413      	add	r3, r2
 80022be:	005b      	lsls	r3, r3, #1
 80022c0:	461a      	mov	r2, r3
 80022c2:	683b      	ldr	r3, [r7, #0]
 80022c4:	4413      	add	r3, r2
 80022c6:	79db      	ldrb	r3, [r3, #7]
 80022c8:	2b00      	cmp	r3, #0
 80022ca:	d057      	beq.n	800237c <enemies_push_buffer+0xe8>
            continue;

        for (int i = 0; i < 3; i++)
 80022cc:	2300      	movs	r3, #0
 80022ce:	62bb      	str	r3, [r7, #40]	; 0x28
 80022d0:	e050      	b.n	8002374 <enemies_push_buffer+0xe0>
        {
            int by = enemy_pool[e].y - i;
 80022d2:	6afa      	ldr	r2, [r7, #44]	; 0x2c
 80022d4:	4613      	mov	r3, r2
 80022d6:	009b      	lsls	r3, r3, #2
 80022d8:	4413      	add	r3, r2
 80022da:	005b      	lsls	r3, r3, #1
 80022dc:	461a      	mov	r2, r3
 80022de:	683b      	ldr	r3, [r7, #0]
 80022e0:	4413      	add	r3, r2
 80022e2:	885b      	ldrh	r3, [r3, #2]
 80022e4:	461a      	mov	r2, r3
 80022e6:	6abb      	ldr	r3, [r7, #40]	; 0x28
 80022e8:	1ad3      	subs	r3, r2, r3
 80022ea:	623b      	str	r3, [r7, #32]
            if (by < 0 || by >= SCREEN_ROWS)
 80022ec:	6a3b      	ldr	r3, [r7, #32]
 80022ee:	2b00      	cmp	r3, #0
 80022f0:	db3c      	blt.n	800236c <enemies_push_buffer+0xd8>
 80022f2:	6a3b      	ldr	r3, [r7, #32]
 80022f4:	2b27      	cmp	r3, #39	; 0x27
 80022f6:	dc39      	bgt.n	800236c <enemies_push_buffer+0xd8>
                continue;

            for (int j = 0; j < 5; j++)
 80022f8:	2300      	movs	r3, #0
 80022fa:	627b      	str	r3, [r7, #36]	; 0x24
 80022fc:	e032      	b.n	8002364 <enemies_push_buffer+0xd0>
            {
                int bx = enemy_pool[e].x + j;
 80022fe:	6afa      	ldr	r2, [r7, #44]	; 0x2c
 8002300:	4613      	mov	r3, r2
 8002302:	009b      	lsls	r3, r3, #2
 8002304:	4413      	add	r3, r2
 8002306:	005b      	lsls	r3, r3, #1
 8002308:	461a      	mov	r2, r3
 800230a:	683b      	ldr	r3, [r7, #0]
 800230c:	4413      	add	r3, r2
 800230e:	881b      	ldrh	r3, [r3, #0]
 8002310:	461a      	mov	r2, r3
 8002312:	6a7b      	ldr	r3, [r7, #36]	; 0x24
 8002314:	4413      	add	r3, r2
 8002316:	61fb      	str	r3, [r7, #28]
                if (bx < 0 || bx >= SCREEN_COLS)
 8002318:	69fb      	ldr	r3, [r7, #28]
 800231a:	2b00      	cmp	r3, #0
 800231c:	db1e      	blt.n	800235c <enemies_push_buffer+0xc8>
 800231e:	69fb      	ldr	r3, [r7, #28]
 8002320:	2b3b      	cmp	r3, #59	; 0x3b
 8002322:	dc1b      	bgt.n	800235c <enemies_push_buffer+0xc8>
                    continue;

                uint8_t ch = alien_lasher[i][j];
 8002324:	6aba      	ldr	r2, [r7, #40]	; 0x28
 8002326:	4613      	mov	r3, r2
 8002328:	009b      	lsls	r3, r3, #2
 800232a:	4413      	add	r3, r2
 800232c:	f107 0230 	add.w	r2, r7, #48	; 0x30
 8002330:	441a      	add	r2, r3
 8002332:	6a7b      	ldr	r3, [r7, #36]	; 0x24
 8002334:	4413      	add	r3, r2
 8002336:	3b24      	subs	r3, #36	; 0x24
 8002338:	781b      	ldrb	r3, [r3, #0]
 800233a:	76fb      	strb	r3, [r7, #27]
                if (ch != 32) // 32 = ' '
 800233c:	7efb      	ldrb	r3, [r7, #27]
 800233e:	2b20      	cmp	r3, #32
 8002340:	d00d      	beq.n	800235e <enemies_push_buffer+0xca>
                    buffer[by][bx] = ch;
 8002342:	6a3a      	ldr	r2, [r7, #32]
 8002344:	4613      	mov	r3, r2
 8002346:	011b      	lsls	r3, r3, #4
 8002348:	1a9b      	subs	r3, r3, r2
 800234a:	009b      	lsls	r3, r3, #2
 800234c:	461a      	mov	r2, r3
 800234e:	687b      	ldr	r3, [r7, #4]
 8002350:	441a      	add	r2, r3
 8002352:	69fb      	ldr	r3, [r7, #28]
 8002354:	4413      	add	r3, r2
 8002356:	7efa      	ldrb	r2, [r7, #27]
 8002358:	701a      	strb	r2, [r3, #0]
 800235a:	e000      	b.n	800235e <enemies_push_buffer+0xca>
                    continue;
 800235c:	bf00      	nop
            for (int j = 0; j < 5; j++)
 800235e:	6a7b      	ldr	r3, [r7, #36]	; 0x24
 8002360:	3301      	adds	r3, #1
 8002362:	627b      	str	r3, [r7, #36]	; 0x24
 8002364:	6a7b      	ldr	r3, [r7, #36]	; 0x24
 8002366:	2b04      	cmp	r3, #4
 8002368:	ddc9      	ble.n	80022fe <enemies_push_buffer+0x6a>
 800236a:	e000      	b.n	800236e <enemies_push_buffer+0xda>
                continue;
 800236c:	bf00      	nop
        for (int i = 0; i < 3; i++)
 800236e:	6abb      	ldr	r3, [r7, #40]	; 0x28
 8002370:	3301      	adds	r3, #1
 8002372:	62bb      	str	r3, [r7, #40]	; 0x28
 8002374:	6abb      	ldr	r3, [r7, #40]	; 0x28
 8002376:	2b02      	cmp	r3, #2
 8002378:	ddab      	ble.n	80022d2 <enemies_push_buffer+0x3e>
 800237a:	e000      	b.n	800237e <enemies_push_buffer+0xea>
            continue;
 800237c:	bf00      	nop
    for (int e = 0; e < MAX_ENEMIES; e++)
 800237e:	6afb      	ldr	r3, [r7, #44]	; 0x2c
 8002380:	3301      	adds	r3, #1
 8002382:	62fb      	str	r3, [r7, #44]	; 0x2c
 8002384:	6afb      	ldr	r3, [r7, #44]	; 0x2c
 8002386:	2b04      	cmp	r3, #4
 8002388:	dd95      	ble.n	80022b6 <enemies_push_buffer+0x22>
            }
        }
    }
}
 800238a:	bf00      	nop
 800238c:	bf00      	nop
 800238e:	3730      	adds	r7, #48	; 0x30
 8002390:	46bd      	mov	sp, r7
 8002392:	bc90      	pop	{r4, r7}
 8002394:	4770      	bx	lr
 8002396:	bf00      	nop
 8002398:	08005054 	.word	0x08005054

0800239c <enemies_shoot>:

/* =========================
   Fjender skyder
   ========================= */
void enemies_shoot(enemy enemy_pool[], Bullet enemyBullets[], int bullet_count)
{
 800239c:	b580      	push	{r7, lr}
 800239e:	b086      	sub	sp, #24
 80023a0:	af00      	add	r7, sp, #0
 80023a2:	60f8      	str	r0, [r7, #12]
 80023a4:	60b9      	str	r1, [r7, #8]
 80023a6:	607a      	str	r2, [r7, #4]
    static uint16_t shoot_counter = 0;
    static int next_enemy = 0;

    shoot_counter++;
 80023a8:	4b2e      	ldr	r3, [pc, #184]	; (8002464 <enemies_shoot+0xc8>)
 80023aa:	881b      	ldrh	r3, [r3, #0]
 80023ac:	3301      	adds	r3, #1
 80023ae:	b29a      	uxth	r2, r3
 80023b0:	4b2c      	ldr	r3, [pc, #176]	; (8002464 <enemies_shoot+0xc8>)
 80023b2:	801a      	strh	r2, [r3, #0]
    if (shoot_counter < 20)   // lavere tal = skyder oftere
 80023b4:	4b2b      	ldr	r3, [pc, #172]	; (8002464 <enemies_shoot+0xc8>)
 80023b6:	881b      	ldrh	r3, [r3, #0]
 80023b8:	2b13      	cmp	r3, #19
 80023ba:	d94e      	bls.n	800245a <enemies_shoot+0xbe>
        return;

    shoot_counter = 0;
 80023bc:	4b29      	ldr	r3, [pc, #164]	; (8002464 <enemies_shoot+0xc8>)
 80023be:	2200      	movs	r2, #0
 80023c0:	801a      	strh	r2, [r3, #0]

    for (int k = 0; k < MAX_ENEMIES; k++)
 80023c2:	2300      	movs	r3, #0
 80023c4:	617b      	str	r3, [r7, #20]
 80023c6:	e044      	b.n	8002452 <enemies_shoot+0xb6>
    {
        int i = (next_enemy + k) % MAX_ENEMIES;
 80023c8:	4b27      	ldr	r3, [pc, #156]	; (8002468 <enemies_shoot+0xcc>)
 80023ca:	681a      	ldr	r2, [r3, #0]
 80023cc:	697b      	ldr	r3, [r7, #20]
 80023ce:	441a      	add	r2, r3
 80023d0:	4b26      	ldr	r3, [pc, #152]	; (800246c <enemies_shoot+0xd0>)
 80023d2:	fb83 1302 	smull	r1, r3, r3, r2
 80023d6:	1059      	asrs	r1, r3, #1
 80023d8:	17d3      	asrs	r3, r2, #31
 80023da:	1ac9      	subs	r1, r1, r3
 80023dc:	460b      	mov	r3, r1
 80023de:	009b      	lsls	r3, r3, #2
 80023e0:	440b      	add	r3, r1
 80023e2:	1ad3      	subs	r3, r2, r3
 80023e4:	613b      	str	r3, [r7, #16]

        if (enemy_pool[i].alive)
 80023e6:	693a      	ldr	r2, [r7, #16]
 80023e8:	4613      	mov	r3, r2
 80023ea:	009b      	lsls	r3, r3, #2
 80023ec:	4413      	add	r3, r2
 80023ee:	005b      	lsls	r3, r3, #1
 80023f0:	461a      	mov	r2, r3
 80023f2:	68fb      	ldr	r3, [r7, #12]
 80023f4:	4413      	add	r3, r2
 80023f6:	79db      	ldrb	r3, [r3, #7]
 80023f8:	2b00      	cmp	r3, #0
 80023fa:	d027      	beq.n	800244c <enemies_shoot+0xb0>
        {
            bullets_shoot_enemy(enemyBullets, bullet_count,
                                (int)enemy_pool[i].x + 2,
 80023fc:	693a      	ldr	r2, [r7, #16]
 80023fe:	4613      	mov	r3, r2
 8002400:	009b      	lsls	r3, r3, #2
 8002402:	4413      	add	r3, r2
 8002404:	005b      	lsls	r3, r3, #1
 8002406:	461a      	mov	r2, r3
 8002408:	68fb      	ldr	r3, [r7, #12]
 800240a:	4413      	add	r3, r2
 800240c:	881b      	ldrh	r3, [r3, #0]
            bullets_shoot_enemy(enemyBullets, bullet_count,
 800240e:	1c99      	adds	r1, r3, #2
                                (int)enemy_pool[i].y + 1);
 8002410:	693a      	ldr	r2, [r7, #16]
 8002412:	4613      	mov	r3, r2
 8002414:	009b      	lsls	r3, r3, #2
 8002416:	4413      	add	r3, r2
 8002418:	005b      	lsls	r3, r3, #1
 800241a:	461a      	mov	r2, r3
 800241c:	68fb      	ldr	r3, [r7, #12]
 800241e:	4413      	add	r3, r2
 8002420:	885b      	ldrh	r3, [r3, #2]
            bullets_shoot_enemy(enemyBullets, bullet_count,
 8002422:	3301      	adds	r3, #1
 8002424:	460a      	mov	r2, r1
 8002426:	6879      	ldr	r1, [r7, #4]
 8002428:	68b8      	ldr	r0, [r7, #8]
 800242a:	f7ff f8d4 	bl	80015d6 <bullets_shoot_enemy>

            next_enemy = (i + 1) % MAX_ENEMIES;
 800242e:	693b      	ldr	r3, [r7, #16]
 8002430:	1c59      	adds	r1, r3, #1
 8002432:	4b0e      	ldr	r3, [pc, #56]	; (800246c <enemies_shoot+0xd0>)
 8002434:	fb83 2301 	smull	r2, r3, r3, r1
 8002438:	105a      	asrs	r2, r3, #1
 800243a:	17cb      	asrs	r3, r1, #31
 800243c:	1ad2      	subs	r2, r2, r3
 800243e:	4613      	mov	r3, r2
 8002440:	009b      	lsls	r3, r3, #2
 8002442:	4413      	add	r3, r2
 8002444:	1aca      	subs	r2, r1, r3
 8002446:	4b08      	ldr	r3, [pc, #32]	; (8002468 <enemies_shoot+0xcc>)
 8002448:	601a      	str	r2, [r3, #0]
            break;
 800244a:	e007      	b.n	800245c <enemies_shoot+0xc0>
    for (int k = 0; k < MAX_ENEMIES; k++)
 800244c:	697b      	ldr	r3, [r7, #20]
 800244e:	3301      	adds	r3, #1
 8002450:	617b      	str	r3, [r7, #20]
 8002452:	697b      	ldr	r3, [r7, #20]
 8002454:	2b04      	cmp	r3, #4
 8002456:	ddb7      	ble.n	80023c8 <enemies_shoot+0x2c>
 8002458:	e000      	b.n	800245c <enemies_shoot+0xc0>
        return;
 800245a:	bf00      	nop
        }
    }
}
 800245c:	3718      	adds	r7, #24
 800245e:	46bd      	mov	sp, r7
 8002460:	bd80      	pop	{r7, pc}
 8002462:	bf00      	nop
 8002464:	200005fc 	.word	0x200005fc
 8002468:	20000600 	.word	0x20000600
 800246c:	66666667 	.word	0x66666667

08002470 <joystick_just_pressed>:
#include "joystick.h"
 uint8_t joystick_just_pressed(uint8_t input, uint8_t mask, uint8_t *prev)
    {
 8002470:	b480      	push	{r7}
 8002472:	b085      	sub	sp, #20
 8002474:	af00      	add	r7, sp, #0
 8002476:	4603      	mov	r3, r0
 8002478:	603a      	str	r2, [r7, #0]
 800247a:	71fb      	strb	r3, [r7, #7]
 800247c:	460b      	mov	r3, r1
 800247e:	71bb      	strb	r3, [r7, #6]
        uint8_t now = (input & mask) ? 1 : 0;
 8002480:	79fa      	ldrb	r2, [r7, #7]
 8002482:	79bb      	ldrb	r3, [r7, #6]
 8002484:	4013      	ands	r3, r2
 8002486:	b2db      	uxtb	r3, r3
 8002488:	2b00      	cmp	r3, #0
 800248a:	bf14      	ite	ne
 800248c:	2301      	movne	r3, #1
 800248e:	2300      	moveq	r3, #0
 8002490:	b2db      	uxtb	r3, r3
 8002492:	73fb      	strb	r3, [r7, #15]
        uint8_t jp  = (now && !(*prev)) ? 1 : 0;
 8002494:	7bfb      	ldrb	r3, [r7, #15]
 8002496:	2b00      	cmp	r3, #0
 8002498:	d005      	beq.n	80024a6 <joystick_just_pressed+0x36>
 800249a:	683b      	ldr	r3, [r7, #0]
 800249c:	781b      	ldrb	r3, [r3, #0]
 800249e:	2b00      	cmp	r3, #0
 80024a0:	d101      	bne.n	80024a6 <joystick_just_pressed+0x36>
 80024a2:	2301      	movs	r3, #1
 80024a4:	e000      	b.n	80024a8 <joystick_just_pressed+0x38>
 80024a6:	2300      	movs	r3, #0
 80024a8:	73bb      	strb	r3, [r7, #14]
        *prev = now;
 80024aa:	683b      	ldr	r3, [r7, #0]
 80024ac:	7bfa      	ldrb	r2, [r7, #15]
 80024ae:	701a      	strb	r2, [r3, #0]
        return jp;
 80024b0:	7bbb      	ldrb	r3, [r7, #14]
    }
 80024b2:	4618      	mov	r0, r3
 80024b4:	3714      	adds	r7, #20
 80024b6:	46bd      	mov	sp, r7
 80024b8:	f85d 7b04 	ldr.w	r7, [sp], #4
 80024bc:	4770      	bx	lr
	...

080024c0 <GPIO_init>:
void GPIO_init(){
 80024c0:	b480      	push	{r7}
 80024c2:	af00      	add	r7, sp, #0
	RCC->AHBENR |= RCC_AHBPeriph_GPIOA; // Enable clock for GPIO Port A
 80024c4:	4b44      	ldr	r3, [pc, #272]	; (80025d8 <GPIO_init+0x118>)
 80024c6:	695b      	ldr	r3, [r3, #20]
 80024c8:	4a43      	ldr	r2, [pc, #268]	; (80025d8 <GPIO_init+0x118>)
 80024ca:	f443 3300 	orr.w	r3, r3, #131072	; 0x20000
 80024ce:	6153      	str	r3, [r2, #20]
	// Set pin PA0 to input

	GPIOA->MODER &= ~(0x00000003 << (0 * 2)); // Clear mode register
 80024d0:	f04f 4390 	mov.w	r3, #1207959552	; 0x48000000
 80024d4:	681b      	ldr	r3, [r3, #0]
 80024d6:	f04f 4290 	mov.w	r2, #1207959552	; 0x48000000
 80024da:	f023 0303 	bic.w	r3, r3, #3
 80024de:	6013      	str	r3, [r2, #0]
	GPIOA->MODER |= (0x00000000 << (0 * 2)); // Set mode register (0x00 Input, 0x01 - Output, 0x02 - Alternate Function, 0x03 - Analog in/out)
 80024e0:	f04f 4390 	mov.w	r3, #1207959552	; 0x48000000
 80024e4:	f04f 4290 	mov.w	r2, #1207959552	; 0x48000000
 80024e8:	681b      	ldr	r3, [r3, #0]
 80024ea:	6013      	str	r3, [r2, #0]
	GPIOA->PUPDR &= ~(0x00000003 << (0 * 2)); // Clear push/pull register
 80024ec:	f04f 4390 	mov.w	r3, #1207959552	; 0x48000000
 80024f0:	68db      	ldr	r3, [r3, #12]
 80024f2:	f04f 4290 	mov.w	r2, #1207959552	; 0x48000000
 80024f6:	f023 0303 	bic.w	r3, r3, #3
 80024fa:	60d3      	str	r3, [r2, #12]
	GPIOA->PUPDR |= (0x00000002 << (0 * 2)); // Set push/pull register (0x00 -No pull, 0x01 - Pull-up, 0x02 - Pull-down)
 80024fc:	f04f 4390 	mov.w	r3, #1207959552	; 0x48000000
 8002500:	68db      	ldr	r3, [r3, #12]
 8002502:	f04f 4290 	mov.w	r2, #1207959552	; 0x48000000
 8002506:	f043 0302 	orr.w	r3, r3, #2
 800250a:	60d3      	str	r3, [r2, #12]

	RCC->AHBENR |= RCC_AHBPeriph_GPIOB; // Enable clock for GPIO Port B
 800250c:	4b32      	ldr	r3, [pc, #200]	; (80025d8 <GPIO_init+0x118>)
 800250e:	695b      	ldr	r3, [r3, #20]
 8002510:	4a31      	ldr	r2, [pc, #196]	; (80025d8 <GPIO_init+0x118>)
 8002512:	f443 2380 	orr.w	r3, r3, #262144	; 0x40000
 8002516:	6153      	str	r3, [r2, #20]


	GPIOB->MODER &= ~(0x00000003 << (0 * 2)); // Clear mode register
 8002518:	4b30      	ldr	r3, [pc, #192]	; (80025dc <GPIO_init+0x11c>)
 800251a:	681b      	ldr	r3, [r3, #0]
 800251c:	4a2f      	ldr	r2, [pc, #188]	; (80025dc <GPIO_init+0x11c>)
 800251e:	f023 0303 	bic.w	r3, r3, #3
 8002522:	6013      	str	r3, [r2, #0]
	GPIOB->MODER |= (0x00000000 << (0 * 2)); // Set mode register (0x00 Input, 0x01 - Output, 0x02 - Alternate Function, 0x03 - Analog in/out)
 8002524:	4b2d      	ldr	r3, [pc, #180]	; (80025dc <GPIO_init+0x11c>)
 8002526:	4a2d      	ldr	r2, [pc, #180]	; (80025dc <GPIO_init+0x11c>)
 8002528:	681b      	ldr	r3, [r3, #0]
 800252a:	6013      	str	r3, [r2, #0]
	GPIOB->PUPDR &= ~(0x00000003 << (0 * 2)); // Clear push/pull register
 800252c:	4b2b      	ldr	r3, [pc, #172]	; (80025dc <GPIO_init+0x11c>)
 800252e:	68db      	ldr	r3, [r3, #12]
 8002530:	4a2a      	ldr	r2, [pc, #168]	; (80025dc <GPIO_init+0x11c>)
 8002532:	f023 0303 	bic.w	r3, r3, #3
 8002536:	60d3      	str	r3, [r2, #12]
	GPIOB->PUPDR |= (0x00000002 << (0 * 2)); // Set push/pull register (0x00 -No pull, 0x01 - Pull-up, 0x02 - Pull-down)
 8002538:	4b28      	ldr	r3, [pc, #160]	; (80025dc <GPIO_init+0x11c>)
 800253a:	68db      	ldr	r3, [r3, #12]
 800253c:	4a27      	ldr	r2, [pc, #156]	; (80025dc <GPIO_init+0x11c>)
 800253e:	f043 0302 	orr.w	r3, r3, #2
 8002542:	60d3      	str	r3, [r2, #12]

	RCC->AHBENR |= RCC_AHBPeriph_GPIOC; // Enable clock for GPIO Port C
 8002544:	4b24      	ldr	r3, [pc, #144]	; (80025d8 <GPIO_init+0x118>)
 8002546:	695b      	ldr	r3, [r3, #20]
 8002548:	4a23      	ldr	r2, [pc, #140]	; (80025d8 <GPIO_init+0x118>)
 800254a:	f443 2300 	orr.w	r3, r3, #524288	; 0x80000
 800254e:	6153      	str	r3, [r2, #20]


	GPIOC->MODER &= ~(0x00000003 << (0 * 2)); // Clear mode register
 8002550:	4b23      	ldr	r3, [pc, #140]	; (80025e0 <GPIO_init+0x120>)
 8002552:	681b      	ldr	r3, [r3, #0]
 8002554:	4a22      	ldr	r2, [pc, #136]	; (80025e0 <GPIO_init+0x120>)
 8002556:	f023 0303 	bic.w	r3, r3, #3
 800255a:	6013      	str	r3, [r2, #0]
	GPIOC->MODER |= (0x00000000 << (0 * 2)); // Set mode register (0x00 Input, 0x01 - Output, 0x02 - Alternate Function, 0x03 - Analog in/out)
 800255c:	4b20      	ldr	r3, [pc, #128]	; (80025e0 <GPIO_init+0x120>)
 800255e:	4a20      	ldr	r2, [pc, #128]	; (80025e0 <GPIO_init+0x120>)
 8002560:	681b      	ldr	r3, [r3, #0]
 8002562:	6013      	str	r3, [r2, #0]
	GPIOC->PUPDR &= ~(0x00000003 << (0 * 2)); // Clear push/pull register
 8002564:	4b1e      	ldr	r3, [pc, #120]	; (80025e0 <GPIO_init+0x120>)
 8002566:	68db      	ldr	r3, [r3, #12]
 8002568:	4a1d      	ldr	r2, [pc, #116]	; (80025e0 <GPIO_init+0x120>)
 800256a:	f023 0303 	bic.w	r3, r3, #3
 800256e:	60d3      	str	r3, [r2, #12]
	GPIOC->PUPDR |= (0x00000002 << (0 * 2)); // Set push/pull register (0x00 -No pull, 0x01 - Pull-up, 0x02 - Pull-down)
 8002570:	4b1b      	ldr	r3, [pc, #108]	; (80025e0 <GPIO_init+0x120>)
 8002572:	68db      	ldr	r3, [r3, #12]
 8002574:	4a1a      	ldr	r2, [pc, #104]	; (80025e0 <GPIO_init+0x120>)
 8002576:	f043 0302 	orr.w	r3, r3, #2
 800257a:	60d3      	str	r3, [r2, #12]

	//LED

	//Set PA9 (red) to read
	GPIOA->MODER &= ~(0x00000003 << (9 * 2)); // Clear mode register
 800257c:	f04f 4390 	mov.w	r3, #1207959552	; 0x48000000
 8002580:	681b      	ldr	r3, [r3, #0]
 8002582:	f04f 4290 	mov.w	r2, #1207959552	; 0x48000000
 8002586:	f423 2340 	bic.w	r3, r3, #786432	; 0xc0000
 800258a:	6013      	str	r3, [r2, #0]
	GPIOA->MODER |= (0x00000001 << (9 * 2)); // Set mode register (0x00 Input, 0x01 - Output, 0x02 - Alternate Function, 0x03 - Analog in/out)
 800258c:	f04f 4390 	mov.w	r3, #1207959552	; 0x48000000
 8002590:	681b      	ldr	r3, [r3, #0]
 8002592:	f04f 4290 	mov.w	r2, #1207959552	; 0x48000000
 8002596:	f443 2380 	orr.w	r3, r3, #262144	; 0x40000
 800259a:	6013      	str	r3, [r2, #0]

	//Set PC7 (green) to read
	GPIOC->MODER &= ~(0x00000003 << (7 * 2));
 800259c:	4b10      	ldr	r3, [pc, #64]	; (80025e0 <GPIO_init+0x120>)
 800259e:	681b      	ldr	r3, [r3, #0]
 80025a0:	4a0f      	ldr	r2, [pc, #60]	; (80025e0 <GPIO_init+0x120>)
 80025a2:	f423 4340 	bic.w	r3, r3, #49152	; 0xc000
 80025a6:	6013      	str	r3, [r2, #0]
	GPIOC->MODER |= (0x00000001 << (7 * 2));
 80025a8:	4b0d      	ldr	r3, [pc, #52]	; (80025e0 <GPIO_init+0x120>)
 80025aa:	681b      	ldr	r3, [r3, #0]
 80025ac:	4a0c      	ldr	r2, [pc, #48]	; (80025e0 <GPIO_init+0x120>)
 80025ae:	f443 4380 	orr.w	r3, r3, #16384	; 0x4000
 80025b2:	6013      	str	r3, [r2, #0]

	//Set PB4 (blue) to read
	GPIOB->MODER &= ~(0x00000003 << (4 * 2));
 80025b4:	4b09      	ldr	r3, [pc, #36]	; (80025dc <GPIO_init+0x11c>)
 80025b6:	681b      	ldr	r3, [r3, #0]
 80025b8:	4a08      	ldr	r2, [pc, #32]	; (80025dc <GPIO_init+0x11c>)
 80025ba:	f423 7340 	bic.w	r3, r3, #768	; 0x300
 80025be:	6013      	str	r3, [r2, #0]
	GPIOB->MODER |= (0x00000001 << (4 * 2));
 80025c0:	4b06      	ldr	r3, [pc, #24]	; (80025dc <GPIO_init+0x11c>)
 80025c2:	681b      	ldr	r3, [r3, #0]
 80025c4:	4a05      	ldr	r2, [pc, #20]	; (80025dc <GPIO_init+0x11c>)
 80025c6:	f443 7380 	orr.w	r3, r3, #256	; 0x100
 80025ca:	6013      	str	r3, [r2, #0]
}
 80025cc:	bf00      	nop
 80025ce:	46bd      	mov	sp, r7
 80025d0:	f85d 7b04 	ldr.w	r7, [sp], #4
 80025d4:	4770      	bx	lr
 80025d6:	bf00      	nop
 80025d8:	40021000 	.word	0x40021000
 80025dc:	48000400 	.word	0x48000400
 80025e0:	48000800 	.word	0x48000800

080025e4 <read_joystick>:

uint8_t read_joystick() {
 80025e4:	b480      	push	{r7}
 80025e6:	af00      	add	r7, sp, #0
    // Check if the specific bit is NOT zero
    if (GPIOA->IDR & (1 << 4)) return 0b00000001; // Up    (PA4)
 80025e8:	f04f 4390 	mov.w	r3, #1207959552	; 0x48000000
 80025ec:	8a1b      	ldrh	r3, [r3, #16]
 80025ee:	b29b      	uxth	r3, r3
 80025f0:	f003 0310 	and.w	r3, r3, #16
 80025f4:	2b00      	cmp	r3, #0
 80025f6:	d001      	beq.n	80025fc <read_joystick+0x18>
 80025f8:	2301      	movs	r3, #1
 80025fa:	e024      	b.n	8002646 <read_joystick+0x62>
    if (GPIOB->IDR & (1 << 0)) return 0b00000010; // Down  (PB0)
 80025fc:	4b14      	ldr	r3, [pc, #80]	; (8002650 <read_joystick+0x6c>)
 80025fe:	8a1b      	ldrh	r3, [r3, #16]
 8002600:	b29b      	uxth	r3, r3
 8002602:	f003 0301 	and.w	r3, r3, #1
 8002606:	2b00      	cmp	r3, #0
 8002608:	d001      	beq.n	800260e <read_joystick+0x2a>
 800260a:	2302      	movs	r3, #2
 800260c:	e01b      	b.n	8002646 <read_joystick+0x62>
    if (GPIOC->IDR & (1 << 1)) return 0b00000100; // Left  (PC1)
 800260e:	4b11      	ldr	r3, [pc, #68]	; (8002654 <read_joystick+0x70>)
 8002610:	8a1b      	ldrh	r3, [r3, #16]
 8002612:	b29b      	uxth	r3, r3
 8002614:	f003 0302 	and.w	r3, r3, #2
 8002618:	2b00      	cmp	r3, #0
 800261a:	d001      	beq.n	8002620 <read_joystick+0x3c>
 800261c:	2304      	movs	r3, #4
 800261e:	e012      	b.n	8002646 <read_joystick+0x62>
    if (GPIOC->IDR & (1 << 0)) return 0b00001000; // Right (PC0)
 8002620:	4b0c      	ldr	r3, [pc, #48]	; (8002654 <read_joystick+0x70>)
 8002622:	8a1b      	ldrh	r3, [r3, #16]
 8002624:	b29b      	uxth	r3, r3
 8002626:	f003 0301 	and.w	r3, r3, #1
 800262a:	2b00      	cmp	r3, #0
 800262c:	d001      	beq.n	8002632 <read_joystick+0x4e>
 800262e:	2308      	movs	r3, #8
 8002630:	e009      	b.n	8002646 <read_joystick+0x62>
    if (GPIOB->IDR & (1 << 5)) return 0b00010000; // Center(PB5)
 8002632:	4b07      	ldr	r3, [pc, #28]	; (8002650 <read_joystick+0x6c>)
 8002634:	8a1b      	ldrh	r3, [r3, #16]
 8002636:	b29b      	uxth	r3, r3
 8002638:	f003 0320 	and.w	r3, r3, #32
 800263c:	2b00      	cmp	r3, #0
 800263e:	d001      	beq.n	8002644 <read_joystick+0x60>
 8002640:	2310      	movs	r3, #16
 8002642:	e000      	b.n	8002646 <read_joystick+0x62>

    return 0; // Nothing pressed
 8002644:	2300      	movs	r3, #0
}
 8002646:	4618      	mov	r0, r3
 8002648:	46bd      	mov	sp, r7
 800264a:	f85d 7b04 	ldr.w	r7, [sp], #4
 800264e:	4770      	bx	lr
 8002650:	48000400 	.word	0x48000400
 8002654:	48000800 	.word	0x48000800

08002658 <lcd_draw_heart>:
const uint8_t heart_hollow_bot[13] = {
    0x00, 0x01, 0x02, 0x04, 0x08, 0x10, 0x20,
    0x10, 0x08, 0x04, 0x02, 0x01, 0x00
};

void lcd_draw_heart (uint8_t health, uint8_t buffer[]){
 8002658:	b580      	push	{r7, lr}
 800265a:	b088      	sub	sp, #32
 800265c:	af00      	add	r7, sp, #0
 800265e:	4603      	mov	r3, r0
 8002660:	6039      	str	r1, [r7, #0]
 8002662:	71fb      	strb	r3, [r7, #7]
	for(uint8_t i = 0; i < 3; i++){
 8002664:	2300      	movs	r3, #0
 8002666:	77fb      	strb	r3, [r7, #31]
 8002668:	e05f      	b.n	800272a <lcd_draw_heart+0xd2>

		int8_t container_fill = health - i - 1; //When value below zero hollow hearts should be printed
 800266a:	79fa      	ldrb	r2, [r7, #7]
 800266c:	7ffb      	ldrb	r3, [r7, #31]
 800266e:	1ad3      	subs	r3, r2, r3
 8002670:	b2db      	uxtb	r3, r3
 8002672:	3b01      	subs	r3, #1
 8002674:	b2db      	uxtb	r3, r3
 8002676:	75fb      	strb	r3, [r7, #23]

		for (int j = 0; j < 13; j++) {
 8002678:	2300      	movs	r3, #0
 800267a:	61bb      	str	r3, [r7, #24]
 800267c:	e04d      	b.n	800271a <lcd_draw_heart+0xc2>
			if (j >= 128) break; // Boundary check
 800267e:	69bb      	ldr	r3, [r7, #24]
 8002680:	2b7f      	cmp	r3, #127	; 0x7f
 8002682:	dc4e      	bgt.n	8002722 <lcd_draw_heart+0xca>

	        //Find index for pages (lines on LCD) (1 * 128 is the width of a page)
	        int p0_idx = j + (i * 14);
 8002684:	7ffa      	ldrb	r2, [r7, #31]
 8002686:	4613      	mov	r3, r2
 8002688:	00db      	lsls	r3, r3, #3
 800268a:	1a9b      	subs	r3, r3, r2
 800268c:	005b      	lsls	r3, r3, #1
 800268e:	461a      	mov	r2, r3
 8002690:	69bb      	ldr	r3, [r7, #24]
 8002692:	4413      	add	r3, r2
 8002694:	613b      	str	r3, [r7, #16]
	        int p1_idx = (1 * 128) + j + (i * 14);
 8002696:	69bb      	ldr	r3, [r7, #24]
 8002698:	f103 0180 	add.w	r1, r3, #128	; 0x80
 800269c:	7ffa      	ldrb	r2, [r7, #31]
 800269e:	4613      	mov	r3, r2
 80026a0:	00db      	lsls	r3, r3, #3
 80026a2:	1a9b      	subs	r3, r3, r2
 80026a4:	005b      	lsls	r3, r3, #1
 80026a6:	440b      	add	r3, r1
 80026a8:	60fb      	str	r3, [r7, #12]

	        if(container_fill < 0){
 80026aa:	f997 3017 	ldrsb.w	r3, [r7, #23]
 80026ae:	2b00      	cmp	r3, #0
 80026b0:	da18      	bge.n	80026e4 <lcd_draw_heart+0x8c>
	        	//Boundery check into buffer update
	        	if (p0_idx < 512) buffer[p0_idx] = heart_hollow_top[j];
 80026b2:	693b      	ldr	r3, [r7, #16]
 80026b4:	f5b3 7f00 	cmp.w	r3, #512	; 0x200
 80026b8:	da07      	bge.n	80026ca <lcd_draw_heart+0x72>
 80026ba:	693b      	ldr	r3, [r7, #16]
 80026bc:	683a      	ldr	r2, [r7, #0]
 80026be:	4413      	add	r3, r2
 80026c0:	491f      	ldr	r1, [pc, #124]	; (8002740 <lcd_draw_heart+0xe8>)
 80026c2:	69ba      	ldr	r2, [r7, #24]
 80026c4:	440a      	add	r2, r1
 80026c6:	7812      	ldrb	r2, [r2, #0]
 80026c8:	701a      	strb	r2, [r3, #0]
	        	if (p1_idx < 512) buffer[p1_idx] = heart_hollow_bot[j];
 80026ca:	68fb      	ldr	r3, [r7, #12]
 80026cc:	f5b3 7f00 	cmp.w	r3, #512	; 0x200
 80026d0:	da20      	bge.n	8002714 <lcd_draw_heart+0xbc>
 80026d2:	68fb      	ldr	r3, [r7, #12]
 80026d4:	683a      	ldr	r2, [r7, #0]
 80026d6:	4413      	add	r3, r2
 80026d8:	491a      	ldr	r1, [pc, #104]	; (8002744 <lcd_draw_heart+0xec>)
 80026da:	69ba      	ldr	r2, [r7, #24]
 80026dc:	440a      	add	r2, r1
 80026de:	7812      	ldrb	r2, [r2, #0]
 80026e0:	701a      	strb	r2, [r3, #0]
 80026e2:	e017      	b.n	8002714 <lcd_draw_heart+0xbc>
	        }else{
	        	//Boundery check into buffer update
	        	if (p0_idx < 512) buffer[p0_idx] = heart_filled_top[j];
 80026e4:	693b      	ldr	r3, [r7, #16]
 80026e6:	f5b3 7f00 	cmp.w	r3, #512	; 0x200
 80026ea:	da07      	bge.n	80026fc <lcd_draw_heart+0xa4>
 80026ec:	693b      	ldr	r3, [r7, #16]
 80026ee:	683a      	ldr	r2, [r7, #0]
 80026f0:	4413      	add	r3, r2
 80026f2:	4915      	ldr	r1, [pc, #84]	; (8002748 <lcd_draw_heart+0xf0>)
 80026f4:	69ba      	ldr	r2, [r7, #24]
 80026f6:	440a      	add	r2, r1
 80026f8:	7812      	ldrb	r2, [r2, #0]
 80026fa:	701a      	strb	r2, [r3, #0]
	        	if (p1_idx < 512) buffer[p1_idx] = heart_filled_bot[j];
 80026fc:	68fb      	ldr	r3, [r7, #12]
 80026fe:	f5b3 7f00 	cmp.w	r3, #512	; 0x200
 8002702:	da07      	bge.n	8002714 <lcd_draw_heart+0xbc>
 8002704:	68fb      	ldr	r3, [r7, #12]
 8002706:	683a      	ldr	r2, [r7, #0]
 8002708:	4413      	add	r3, r2
 800270a:	4910      	ldr	r1, [pc, #64]	; (800274c <lcd_draw_heart+0xf4>)
 800270c:	69ba      	ldr	r2, [r7, #24]
 800270e:	440a      	add	r2, r1
 8002710:	7812      	ldrb	r2, [r2, #0]
 8002712:	701a      	strb	r2, [r3, #0]
		for (int j = 0; j < 13; j++) {
 8002714:	69bb      	ldr	r3, [r7, #24]
 8002716:	3301      	adds	r3, #1
 8002718:	61bb      	str	r3, [r7, #24]
 800271a:	69bb      	ldr	r3, [r7, #24]
 800271c:	2b0c      	cmp	r3, #12
 800271e:	ddae      	ble.n	800267e <lcd_draw_heart+0x26>
 8002720:	e000      	b.n	8002724 <lcd_draw_heart+0xcc>
			if (j >= 128) break; // Boundary check
 8002722:	bf00      	nop
	for(uint8_t i = 0; i < 3; i++){
 8002724:	7ffb      	ldrb	r3, [r7, #31]
 8002726:	3301      	adds	r3, #1
 8002728:	77fb      	strb	r3, [r7, #31]
 800272a:	7ffb      	ldrb	r3, [r7, #31]
 800272c:	2b02      	cmp	r3, #2
 800272e:	d99c      	bls.n	800266a <lcd_draw_heart+0x12>
	        }
	    }
	}
	    lcd_push_buffer(buffer);
 8002730:	6838      	ldr	r0, [r7, #0]
 8002732:	f7fe fa81 	bl	8000c38 <lcd_push_buffer>
}
 8002736:	bf00      	nop
 8002738:	3720      	adds	r7, #32
 800273a:	46bd      	mov	sp, r7
 800273c:	bd80      	pop	{r7, pc}
 800273e:	bf00      	nop
 8002740:	08005458 	.word	0x08005458
 8002744:	08005468 	.word	0x08005468
 8002748:	08005438 	.word	0x08005438
 800274c:	08005448 	.word	0x08005448

08002750 <lcd_draw_score>:




void lcd_draw_score(int32_t score, uint8_t buffer[]) {
 8002750:	b580      	push	{r7, lr}
 8002752:	b08e      	sub	sp, #56	; 0x38
 8002754:	af00      	add	r7, sp, #0
 8002756:	6078      	str	r0, [r7, #4]
 8002758:	6039      	str	r1, [r7, #0]
    char score_str[20];
    // Format: Literal "Score: " followed by 8-digit padded integer
    sprintf(score_str, "Score: %08ld", score);
 800275a:	f107 0308 	add.w	r3, r7, #8
 800275e:	687a      	ldr	r2, [r7, #4]
 8002760:	4926      	ldr	r1, [pc, #152]	; (80027fc <lcd_draw_score+0xac>)
 8002762:	4618      	mov	r0, r3
 8002764:	f001 f92e 	bl	80039c4 <siprintf>

    int page3_offset = 256; // Page 2
 8002768:	f44f 7380 	mov.w	r3, #256	; 0x100
 800276c:	62fb      	str	r3, [r7, #44]	; 0x2c
    int x_start = 0;        //
 800276e:	2300      	movs	r3, #0
 8002770:	62bb      	str	r3, [r7, #40]	; 0x28

    for (int i = 0; score_str[i] != '\0'; i++) {
 8002772:	2300      	movs	r3, #0
 8002774:	637b      	str	r3, [r7, #52]	; 0x34
 8002776:	e033      	b.n	80027e0 <lcd_draw_score+0x90>
        // Map ASCII to your character_data table offset
        uint8_t ascii_idx = (uint8_t)score_str[i] - 32;
 8002778:	f107 0208 	add.w	r2, r7, #8
 800277c:	6b7b      	ldr	r3, [r7, #52]	; 0x34
 800277e:	4413      	add	r3, r2
 8002780:	781b      	ldrb	r3, [r3, #0]
 8002782:	3b20      	subs	r3, #32
 8002784:	f887 3027 	strb.w	r3, [r7, #39]	; 0x27

        // Draw each column of the character
        for (int j = 0; j < 5; j++) {
 8002788:	2300      	movs	r3, #0
 800278a:	633b      	str	r3, [r7, #48]	; 0x30
 800278c:	e022      	b.n	80027d4 <lcd_draw_score+0x84>
            // (i * 6) provides a 1-pixel gap between characters
            int x_pos = x_start + (i * 6) + j;
 800278e:	6b7a      	ldr	r2, [r7, #52]	; 0x34
 8002790:	4613      	mov	r3, r2
 8002792:	005b      	lsls	r3, r3, #1
 8002794:	4413      	add	r3, r2
 8002796:	005b      	lsls	r3, r3, #1
 8002798:	461a      	mov	r2, r3
 800279a:	6abb      	ldr	r3, [r7, #40]	; 0x28
 800279c:	4413      	add	r3, r2
 800279e:	6b3a      	ldr	r2, [r7, #48]	; 0x30
 80027a0:	4413      	add	r3, r2
 80027a2:	623b      	str	r3, [r7, #32]

            if (x_pos < 128) {
 80027a4:	6a3b      	ldr	r3, [r7, #32]
 80027a6:	2b7f      	cmp	r3, #127	; 0x7f
 80027a8:	dc11      	bgt.n	80027ce <lcd_draw_score+0x7e>
                int buffer_idx = page3_offset + x_pos;
 80027aa:	6afa      	ldr	r2, [r7, #44]	; 0x2c
 80027ac:	6a3b      	ldr	r3, [r7, #32]
 80027ae:	4413      	add	r3, r2
 80027b0:	61fb      	str	r3, [r7, #28]
                buffer[buffer_idx] = character_data[ascii_idx][j];
 80027b2:	f897 2027 	ldrb.w	r2, [r7, #39]	; 0x27
 80027b6:	69fb      	ldr	r3, [r7, #28]
 80027b8:	6839      	ldr	r1, [r7, #0]
 80027ba:	4419      	add	r1, r3
 80027bc:	4810      	ldr	r0, [pc, #64]	; (8002800 <lcd_draw_score+0xb0>)
 80027be:	4613      	mov	r3, r2
 80027c0:	009b      	lsls	r3, r3, #2
 80027c2:	4413      	add	r3, r2
 80027c4:	18c2      	adds	r2, r0, r3
 80027c6:	6b3b      	ldr	r3, [r7, #48]	; 0x30
 80027c8:	4413      	add	r3, r2
 80027ca:	781b      	ldrb	r3, [r3, #0]
 80027cc:	700b      	strb	r3, [r1, #0]
        for (int j = 0; j < 5; j++) {
 80027ce:	6b3b      	ldr	r3, [r7, #48]	; 0x30
 80027d0:	3301      	adds	r3, #1
 80027d2:	633b      	str	r3, [r7, #48]	; 0x30
 80027d4:	6b3b      	ldr	r3, [r7, #48]	; 0x30
 80027d6:	2b04      	cmp	r3, #4
 80027d8:	ddd9      	ble.n	800278e <lcd_draw_score+0x3e>
    for (int i = 0; score_str[i] != '\0'; i++) {
 80027da:	6b7b      	ldr	r3, [r7, #52]	; 0x34
 80027dc:	3301      	adds	r3, #1
 80027de:	637b      	str	r3, [r7, #52]	; 0x34
 80027e0:	f107 0208 	add.w	r2, r7, #8
 80027e4:	6b7b      	ldr	r3, [r7, #52]	; 0x34
 80027e6:	4413      	add	r3, r2
 80027e8:	781b      	ldrb	r3, [r3, #0]
 80027ea:	2b00      	cmp	r3, #0
 80027ec:	d1c4      	bne.n	8002778 <lcd_draw_score+0x28>
            }
        }
    }
    lcd_push_buffer(buffer);
 80027ee:	6838      	ldr	r0, [r7, #0]
 80027f0:	f7fe fa22 	bl	8000c38 <lcd_push_buffer>
}
 80027f4:	bf00      	nop
 80027f6:	3738      	adds	r7, #56	; 0x38
 80027f8:	46bd      	mov	sp, r7
 80027fa:	bd80      	pop	{r7, pc}
 80027fc:	08005064 	.word	0x08005064
 8002800:	0800525c 	.word	0x0800525c

08002804 <main>:
#define ENEMY_BULLET_POOL_SIZE 16

game_state state = STATE_MENU;

int main(void)
{
 8002804:	b580      	push	{r7, lr}
 8002806:	f5ad 5db4 	sub.w	sp, sp, #5760	; 0x1680
 800280a:	b082      	sub	sp, #8
 800280c:	af02      	add	r7, sp, #8
    uart_init(115200);
 800280e:	f44f 30e1 	mov.w	r0, #115200	; 0x1c200
 8002812:	f7fe f8c5 	bl	80009a0 <uart_init>
    timer15_init();
 8002816:	f000 fe41 	bl	800349c <timer15_init>
    lcd_init();
 800281a:	f7fe fb41 	bl	8000ea0 <lcd_init>
    GPIO_init();
 800281e:	f7ff fe4f 	bl	80024c0 <GPIO_init>
    printf("\x1B[?25h");
 8002822:	48a5      	ldr	r0, [pc, #660]	; (8002ab8 <main+0x2b4>)
 8002824:	f000 ff1c 	bl	8003660 <iprintf>

    uint16_t enemy_spawn_counter = 0;
 8002828:	2300      	movs	r3, #0
 800282a:	f507 52b3 	add.w	r2, r7, #5728	; 0x1660
 800282e:	f102 021e 	add.w	r2, r2, #30
 8002832:	8013      	strh	r3, [r2, #0]
    uint16_t enemy_move_counter  = 0;
 8002834:	2300      	movs	r3, #0
 8002836:	f507 52b3 	add.w	r2, r7, #5728	; 0x1660
 800283a:	f102 021c 	add.w	r2, r2, #28
 800283e:	8013      	strh	r3, [r2, #0]
    uint32_t score = 0;
 8002840:	2300      	movs	r3, #0
 8002842:	f507 52b3 	add.w	r2, r7, #5728	; 0x1660
 8002846:	f102 0218 	add.w	r2, r2, #24
 800284a:	6013      	str	r3, [r2, #0]
    uint32_t highscore = 0;
 800284c:	2300      	movs	r3, #0
 800284e:	f507 52b3 	add.w	r2, r7, #5728	; 0x1660
 8002852:	f102 0214 	add.w	r2, r2, #20
 8002856:	6013      	str	r3, [r2, #0]

    clrscr();
 8002858:	f7fe fc7e 	bl	8001158 <clrscr>
    draw_border();
 800285c:	f7ff fb9c 	bl	8001f98 <draw_border>
    printf("\x1B[?25l");
 8002860:	4896      	ldr	r0, [pc, #600]	; (8002abc <main+0x2b8>)
 8002862:	f000 fefd 	bl	8003660 <iprintf>

    /* ===== BUZZER INIT + BG MUSIC ===== */
    //buzzer_init();
    buzzer_set_bg(BG_MAIN_THEME, 1);   // loop baggrundsmusik
 8002866:	4b96      	ldr	r3, [pc, #600]	; (8002ac0 <main+0x2bc>)
 8002868:	2201      	movs	r2, #1
 800286a:	e893 0003 	ldmia.w	r3, {r0, r1}
 800286e:	f7ff f94d 	bl	8001b0c <buzzer_set_bg>
    buzzer_bg_start();
 8002872:	f7ff f96d 	bl	8001b50 <buzzer_bg_start>

    uint8_t current_buffer[SCREEN_ROWS][SCREEN_COLS];
    uint8_t shadow_buffer[SCREEN_ROWS][SCREEN_COLS];
    memset(current_buffer, ' ', SCREEN_ROWS * SCREEN_COLS);
 8002876:	f607 43f8 	addw	r3, r7, #3320	; 0xcf8
 800287a:	f44f 6216 	mov.w	r2, #2400	; 0x960
 800287e:	2120      	movs	r1, #32
 8002880:	4618      	mov	r0, r3
 8002882:	f000 fee5 	bl	8003650 <memset>
    memset(shadow_buffer,  ' ', SCREEN_ROWS * SCREEN_COLS);
 8002886:	f507 7368 	add.w	r3, r7, #928	; 0x3a0
 800288a:	3b08      	subs	r3, #8
 800288c:	f44f 6216 	mov.w	r2, #2400	; 0x960
 8002890:	2120      	movs	r1, #32
 8002892:	4618      	mov	r0, r3
 8002894:	f000 fedc 	bl	8003650 <memset>

    uint8_t lcd_buffer[512];
    memset(lcd_buffer,0x00,512);
 8002898:	f507 73d0 	add.w	r3, r7, #416	; 0x1a0
 800289c:	3b08      	subs	r3, #8
 800289e:	f44f 7200 	mov.w	r2, #512	; 0x200
 80028a2:	2100      	movs	r1, #0
 80028a4:	4618      	mov	r0, r3
 80028a6:	f000 fed3 	bl	8003650 <memset>

    player p1 = {.x = 50, .y = SCREEN_ROWS - 1, .sx = 5, .sy = 3};
 80028aa:	f507 73d0 	add.w	r3, r7, #416	; 0x1a0
 80028ae:	3b14      	subs	r3, #20
 80028b0:	2200      	movs	r2, #0
 80028b2:	601a      	str	r2, [r3, #0]
 80028b4:	605a      	str	r2, [r3, #4]
 80028b6:	811a      	strh	r2, [r3, #8]
 80028b8:	f507 73d0 	add.w	r3, r7, #416	; 0x1a0
 80028bc:	3b14      	subs	r3, #20
 80028be:	2232      	movs	r2, #50	; 0x32
 80028c0:	801a      	strh	r2, [r3, #0]
 80028c2:	f507 73d0 	add.w	r3, r7, #416	; 0x1a0
 80028c6:	3b14      	subs	r3, #20
 80028c8:	2227      	movs	r2, #39	; 0x27
 80028ca:	805a      	strh	r2, [r3, #2]
 80028cc:	f507 73d0 	add.w	r3, r7, #416	; 0x1a0
 80028d0:	3b14      	subs	r3, #20
 80028d2:	2205      	movs	r2, #5
 80028d4:	711a      	strb	r2, [r3, #4]
 80028d6:	f507 73d0 	add.w	r3, r7, #416	; 0x1a0
 80028da:	3b14      	subs	r3, #20
 80028dc:	2203      	movs	r2, #3
 80028de:	715a      	strb	r2, [r3, #5]
    p1.hp = 3;
 80028e0:	f507 73d0 	add.w	r3, r7, #416	; 0x1a0
 80028e4:	3b14      	subs	r3, #20
 80028e6:	2203      	movs	r2, #3
 80028e8:	719a      	strb	r2, [r3, #6]
    p1.hit_count = 0;
 80028ea:	f507 73d0 	add.w	r3, r7, #416	; 0x1a0
 80028ee:	3b14      	subs	r3, #20
 80028f0:	2200      	movs	r2, #0
 80028f2:	721a      	strb	r2, [r3, #8]

    enemy enemy_pool[MAX_ENEMIES];
    memset(enemy_pool, 0, sizeof(enemy_pool));
 80028f4:	f507 73b0 	add.w	r3, r7, #352	; 0x160
 80028f8:	3b08      	subs	r3, #8
 80028fa:	2232      	movs	r2, #50	; 0x32
 80028fc:	2100      	movs	r1, #0
 80028fe:	4618      	mov	r0, r3
 8002900:	f000 fea6 	bl	8003650 <memset>

    asteroid ast = {.x = 2, .y = 20, .sx = 9, .sy = 7, .alive = 1, .clean = 1};
 8002904:	f507 73b0 	add.w	r3, r7, #352	; 0x160
 8002908:	3b14      	subs	r3, #20
 800290a:	4a6e      	ldr	r2, [pc, #440]	; (8002ac4 <main+0x2c0>)
 800290c:	ca07      	ldmia	r2, {r0, r1, r2}
 800290e:	c303      	stmia	r3!, {r0, r1}
 8002910:	801a      	strh	r2, [r3, #0]

    /* Player bullets (din eksisterende pool) */
    Bullet* bullets = bullets_get_pool();
 8002912:	f7fe fdb3 	bl	800147c <bullets_get_pool>
 8002916:	f507 53b3 	add.w	r3, r7, #5728	; 0x1660
 800291a:	f103 030c 	add.w	r3, r3, #12
 800291e:	6018      	str	r0, [r3, #0]
    (void)bullets_get_count();
 8002920:	f7fe fdb6 	bl	8001490 <bullets_get_count>
    bullets_init(bullets, BULLET_POOL_SIZE);
 8002924:	2132      	movs	r1, #50	; 0x32
 8002926:	f507 53b3 	add.w	r3, r7, #5728	; 0x1660
 800292a:	f103 030c 	add.w	r3, r3, #12
 800292e:	6818      	ldr	r0, [r3, #0]
 8002930:	f7fe fde3 	bl	80014fa <bullets_init>

    /* Enemy bullets (egen pool) */
    Bullet enemyBullets[ENEMY_BULLET_POOL_SIZE];
    bullets_init(enemyBullets, ENEMY_BULLET_POOL_SIZE);
 8002934:	f107 0320 	add.w	r3, r7, #32
 8002938:	3b14      	subs	r3, #20
 800293a:	2110      	movs	r1, #16
 800293c:	4618      	mov	r0, r3
 800293e:	f7fe fddc 	bl	80014fa <bullets_init>

    uint8_t prev_center_pressed = 0;
 8002942:	f107 0320 	add.w	r3, r7, #32
 8002946:	3b15      	subs	r3, #21
 8002948:	2200      	movs	r2, #0
 800294a:	701a      	strb	r2, [r3, #0]
    uint8_t input = 0;
 800294c:	2300      	movs	r3, #0
 800294e:	f507 52b3 	add.w	r2, r7, #5728	; 0x1660
 8002952:	f102 020b 	add.w	r2, r2, #11
 8002956:	7013      	strb	r3, [r2, #0]

    game_state prev_state = -1;
 8002958:	23ff      	movs	r3, #255	; 0xff
 800295a:	f507 52b3 	add.w	r2, r7, #5728	; 0x1660
 800295e:	f102 0213 	add.w	r2, r2, #19
 8002962:	7013      	strb	r3, [r2, #0]

    while (1)
    {
        if (!timer_flag)
 8002964:	4b58      	ldr	r3, [pc, #352]	; (8002ac8 <main+0x2c4>)
 8002966:	781b      	ldrb	r3, [r3, #0]
 8002968:	b2db      	uxtb	r3, r3
 800296a:	2b00      	cmp	r3, #0
 800296c:	f000 8294 	beq.w	8002e98 <main+0x694>
            continue;

        timer_flag = 0;
 8002970:	4b55      	ldr	r3, [pc, #340]	; (8002ac8 <main+0x2c4>)
 8002972:	2200      	movs	r2, #0
 8002974:	701a      	strb	r2, [r3, #0]

        /* ===== BUZZER TIMING =====
           Jeres tick er 20 Hz => 50 ms pr tick */
        buzzer_update((uint16_t)TICK_MS);
 8002976:	2032      	movs	r0, #50	; 0x32
 8002978:	f7ff f968 	bl	8001c4c <buzzer_update>

        input = read_joystick();
 800297c:	f7ff fe32 	bl	80025e4 <read_joystick>
 8002980:	4603      	mov	r3, r0
 8002982:	f507 52b3 	add.w	r2, r7, #5728	; 0x1660
 8002986:	f102 020b 	add.w	r2, r2, #11
 800298a:	7013      	strb	r3, [r2, #0]

        /* Hvis state ndres: tegn ny skrm */
        if (state != prev_state)
 800298c:	4b4f      	ldr	r3, [pc, #316]	; (8002acc <main+0x2c8>)
 800298e:	781b      	ldrb	r3, [r3, #0]
 8002990:	f507 52b3 	add.w	r2, r7, #5728	; 0x1660
 8002994:	f102 0213 	add.w	r2, r2, #19
 8002998:	7812      	ldrb	r2, [r2, #0]
 800299a:	429a      	cmp	r2, r3
 800299c:	d023      	beq.n	80029e6 <main+0x1e2>
        {
            clrscr();
 800299e:	f7fe fbdb 	bl	8001158 <clrscr>

            if (state == STATE_BOSSKEY) {
 80029a2:	4b4a      	ldr	r3, [pc, #296]	; (8002acc <main+0x2c8>)
 80029a4:	781b      	ldrb	r3, [r3, #0]
 80029a6:	2b02      	cmp	r3, #2
 80029a8:	d102      	bne.n	80029b0 <main+0x1ac>
                boss_draw();
 80029aa:	f000 fac9 	bl	8002f40 <boss_draw>
 80029ae:	e013      	b.n	80029d8 <main+0x1d4>
            }
            else if (state == STATE_MENU) {
 80029b0:	4b46      	ldr	r3, [pc, #280]	; (8002acc <main+0x2c8>)
 80029b2:	781b      	ldrb	r3, [r3, #0]
 80029b4:	2b00      	cmp	r3, #0
 80029b6:	d102      	bne.n	80029be <main+0x1ba>
                menu_draw();
 80029b8:	f000 fa76 	bl	8002ea8 <menu_draw>
 80029bc:	e00c      	b.n	80029d8 <main+0x1d4>
            }
            else if (state == STATE_HELP) {
 80029be:	4b43      	ldr	r3, [pc, #268]	; (8002acc <main+0x2c8>)
 80029c0:	781b      	ldrb	r3, [r3, #0]
 80029c2:	2b01      	cmp	r3, #1
 80029c4:	d102      	bne.n	80029cc <main+0x1c8>
                help_draw();
 80029c6:	f000 fa99 	bl	8002efc <help_draw>
 80029ca:	e005      	b.n	80029d8 <main+0x1d4>
            }
            else if (state == STATE_PLAYING) {
 80029cc:	4b3f      	ldr	r3, [pc, #252]	; (8002acc <main+0x2c8>)
 80029ce:	781b      	ldrb	r3, [r3, #0]
 80029d0:	2b03      	cmp	r3, #3
 80029d2:	d101      	bne.n	80029d8 <main+0x1d4>
                draw_border();
 80029d4:	f7ff fae0 	bl	8001f98 <draw_border>
            }
            prev_state = state;
 80029d8:	4b3c      	ldr	r3, [pc, #240]	; (8002acc <main+0x2c8>)
 80029da:	781b      	ldrb	r3, [r3, #0]
 80029dc:	f507 52b3 	add.w	r2, r7, #5728	; 0x1660
 80029e0:	f102 0213 	add.w	r2, r2, #19
 80029e4:	7013      	strb	r3, [r2, #0]
        }

        switch (state)
 80029e6:	4b39      	ldr	r3, [pc, #228]	; (8002acc <main+0x2c8>)
 80029e8:	781b      	ldrb	r3, [r3, #0]
 80029ea:	2b03      	cmp	r3, #3
 80029ec:	d8ba      	bhi.n	8002964 <main+0x160>
 80029ee:	a201      	add	r2, pc, #4	; (adr r2, 80029f4 <main+0x1f0>)
 80029f0:	f852 f023 	ldr.w	pc, [r2, r3, lsl #2]
 80029f4:	08002a05 	.word	0x08002a05
 80029f8:	08002a51 	.word	0x08002a51
 80029fc:	08002a79 	.word	0x08002a79
 8002a00:	08002a99 	.word	0x08002a99
        {
        case STATE_MENU:
            if (menu_update(input) == 1) {
 8002a04:	f507 53b3 	add.w	r3, r7, #5728	; 0x1660
 8002a08:	f103 030b 	add.w	r3, r3, #11
 8002a0c:	781b      	ldrb	r3, [r3, #0]
 8002a0e:	4618      	mov	r0, r3
 8002a10:	f000 faae 	bl	8002f70 <menu_update>
 8002a14:	4603      	mov	r3, r0
 8002a16:	2b01      	cmp	r3, #1
 8002a18:	d106      	bne.n	8002a28 <main+0x224>
                clrscr();
 8002a1a:	f7fe fb9d 	bl	8001158 <clrscr>
                draw_border();
 8002a1e:	f7ff fabb 	bl	8001f98 <draw_border>
                state = STATE_PLAYING;
 8002a22:	4b2a      	ldr	r3, [pc, #168]	; (8002acc <main+0x2c8>)
 8002a24:	2203      	movs	r2, #3
 8002a26:	701a      	strb	r2, [r3, #0]
            }
            if (menu_update(input) == 2) {
 8002a28:	f507 53b3 	add.w	r3, r7, #5728	; 0x1660
 8002a2c:	f103 030b 	add.w	r3, r3, #11
 8002a30:	781b      	ldrb	r3, [r3, #0]
 8002a32:	4618      	mov	r0, r3
 8002a34:	f000 fa9c 	bl	8002f70 <menu_update>
 8002a38:	4603      	mov	r3, r0
 8002a3a:	2b02      	cmp	r3, #2
 8002a3c:	f040 822e 	bne.w	8002e9c <main+0x698>
                clrscr();
 8002a40:	f7fe fb8a 	bl	8001158 <clrscr>
                draw_border();
 8002a44:	f7ff faa8 	bl	8001f98 <draw_border>
                state = STATE_HELP;
 8002a48:	4b20      	ldr	r3, [pc, #128]	; (8002acc <main+0x2c8>)
 8002a4a:	2201      	movs	r2, #1
 8002a4c:	701a      	strb	r2, [r3, #0]
            }
            break;
 8002a4e:	e225      	b.n	8002e9c <main+0x698>

        case STATE_HELP:
            if (menu_update(input) == 1) {
 8002a50:	f507 53b3 	add.w	r3, r7, #5728	; 0x1660
 8002a54:	f103 030b 	add.w	r3, r3, #11
 8002a58:	781b      	ldrb	r3, [r3, #0]
 8002a5a:	4618      	mov	r0, r3
 8002a5c:	f000 fa88 	bl	8002f70 <menu_update>
 8002a60:	4603      	mov	r3, r0
 8002a62:	2b01      	cmp	r3, #1
 8002a64:	f040 821c 	bne.w	8002ea0 <main+0x69c>
                clrscr();
 8002a68:	f7fe fb76 	bl	8001158 <clrscr>
                draw_border();
 8002a6c:	f7ff fa94 	bl	8001f98 <draw_border>
                state = STATE_PLAYING;
 8002a70:	4b16      	ldr	r3, [pc, #88]	; (8002acc <main+0x2c8>)
 8002a72:	2203      	movs	r2, #3
 8002a74:	701a      	strb	r2, [r3, #0]
            }
            break;
 8002a76:	e213      	b.n	8002ea0 <main+0x69c>

        case STATE_BOSSKEY:
            if (menu_update(input) == 1) {
 8002a78:	f507 53b3 	add.w	r3, r7, #5728	; 0x1660
 8002a7c:	f103 030b 	add.w	r3, r3, #11
 8002a80:	781b      	ldrb	r3, [r3, #0]
 8002a82:	4618      	mov	r0, r3
 8002a84:	f000 fa74 	bl	8002f70 <menu_update>
 8002a88:	4603      	mov	r3, r0
 8002a8a:	2b01      	cmp	r3, #1
 8002a8c:	f040 820a 	bne.w	8002ea4 <main+0x6a0>
                state = STATE_PLAYING;
 8002a90:	4b0e      	ldr	r3, [pc, #56]	; (8002acc <main+0x2c8>)
 8002a92:	2203      	movs	r2, #3
 8002a94:	701a      	strb	r2, [r3, #0]
            }
            break;
 8002a96:	e205      	b.n	8002ea4 <main+0x6a0>

        case STATE_PLAYING:
            if (menu_update(input) == 3) {
 8002a98:	f507 53b3 	add.w	r3, r7, #5728	; 0x1660
 8002a9c:	f103 030b 	add.w	r3, r3, #11
 8002aa0:	781b      	ldrb	r3, [r3, #0]
 8002aa2:	4618      	mov	r0, r3
 8002aa4:	f000 fa64 	bl	8002f70 <menu_update>
 8002aa8:	4603      	mov	r3, r0
 8002aaa:	2b03      	cmp	r3, #3
 8002aac:	d110      	bne.n	8002ad0 <main+0x2cc>
                state = STATE_BOSSKEY;
 8002aae:	4b07      	ldr	r3, [pc, #28]	; (8002acc <main+0x2c8>)
 8002ab0:	2202      	movs	r2, #2
 8002ab2:	701a      	strb	r2, [r3, #0]
                break;
 8002ab4:	e1f7      	b.n	8002ea6 <main+0x6a2>
 8002ab6:	bf00      	nop
 8002ab8:	08005074 	.word	0x08005074
 8002abc:	0800507c 	.word	0x0800507c
 8002ac0:	08005254 	.word	0x08005254
 8002ac4:	08005084 	.word	0x08005084
 8002ac8:	20000618 	.word	0x20000618
 8002acc:	20000604 	.word	0x20000604
            }

            enemy_spawn_counter++;
 8002ad0:	f507 53b3 	add.w	r3, r7, #5728	; 0x1660
 8002ad4:	f103 031e 	add.w	r3, r3, #30
 8002ad8:	881b      	ldrh	r3, [r3, #0]
 8002ada:	3301      	adds	r3, #1
 8002adc:	f507 52b3 	add.w	r2, r7, #5728	; 0x1660
 8002ae0:	f102 021e 	add.w	r2, r2, #30
 8002ae4:	8013      	strh	r3, [r2, #0]
            enemy_move_counter++;
 8002ae6:	f507 53b3 	add.w	r3, r7, #5728	; 0x1660
 8002aea:	f103 031c 	add.w	r3, r3, #28
 8002aee:	881b      	ldrh	r3, [r3, #0]
 8002af0:	3301      	adds	r3, #1
 8002af2:	f507 52b3 	add.w	r2, r7, #5728	; 0x1660
 8002af6:	f102 021c 	add.w	r2, r2, #28
 8002afa:	8013      	strh	r3, [r2, #0]

            bonus_spawn_tick(enemy_pool);
 8002afc:	f507 73b0 	add.w	r3, r7, #352	; 0x160
 8002b00:	3b08      	subs	r3, #8
 8002b02:	4618      	mov	r0, r3
 8002b04:	f7ff faca 	bl	800209c <bonus_spawn_tick>

            clear_buffer(current_buffer);
 8002b08:	f607 43f8 	addw	r3, r7, #3320	; 0xcf8
 8002b0c:	4618      	mov	r0, r3
 8002b0e:	f7ff fa34 	bl	8001f7a <clear_buffer>

            /* Bevgelse: kun retninger (center pvirker ikke movement) */
            uint8_t move_input = input & (JOY_UP | JOY_DOWN | JOY_LEFT | JOY_RIGHT);
 8002b12:	f507 53b3 	add.w	r3, r7, #5728	; 0x1660
 8002b16:	f103 030b 	add.w	r3, r3, #11
 8002b1a:	781b      	ldrb	r3, [r3, #0]
 8002b1c:	f003 030f 	and.w	r3, r3, #15
 8002b20:	f507 52b3 	add.w	r2, r7, #5728	; 0x1660
 8002b24:	f102 020a 	add.w	r2, r2, #10
 8002b28:	7013      	strb	r3, [r2, #0]
            player_update_pos(move_input, &p1);
 8002b2a:	f507 73d0 	add.w	r3, r7, #416	; 0x1a0
 8002b2e:	3b14      	subs	r3, #20
 8002b30:	f507 52b3 	add.w	r2, r7, #5728	; 0x1660
 8002b34:	f102 020a 	add.w	r2, r2, #10
 8002b38:	7812      	ldrb	r2, [r2, #0]
 8002b3a:	4619      	mov	r1, r3
 8002b3c:	4610      	mov	r0, r2
 8002b3e:	f000 fa38 	bl	8002fb2 <player_update_pos>

            /* Skyd (player) */
            uint8_t center_just_pressed =
                joystick_just_pressed(input, JOY_CENTER, &prev_center_pressed);
 8002b42:	f107 0320 	add.w	r3, r7, #32
 8002b46:	3b15      	subs	r3, #21
 8002b48:	f507 52b3 	add.w	r2, r7, #5728	; 0x1660
 8002b4c:	f102 020b 	add.w	r2, r2, #11
 8002b50:	7810      	ldrb	r0, [r2, #0]
 8002b52:	461a      	mov	r2, r3
 8002b54:	2110      	movs	r1, #16
 8002b56:	f7ff fc8b 	bl	8002470 <joystick_just_pressed>
 8002b5a:	4603      	mov	r3, r0
 8002b5c:	f507 52b3 	add.w	r2, r7, #5728	; 0x1660
 8002b60:	f102 0209 	add.w	r2, r2, #9
 8002b64:	7013      	strb	r3, [r2, #0]

            int startX = (p1.x + (p1.sx / 2));
 8002b66:	f507 73d0 	add.w	r3, r7, #416	; 0x1a0
 8002b6a:	3b14      	subs	r3, #20
 8002b6c:	881b      	ldrh	r3, [r3, #0]
 8002b6e:	461a      	mov	r2, r3
 8002b70:	f507 73d0 	add.w	r3, r7, #416	; 0x1a0
 8002b74:	3b14      	subs	r3, #20
 8002b76:	791b      	ldrb	r3, [r3, #4]
 8002b78:	085b      	lsrs	r3, r3, #1
 8002b7a:	b2db      	uxtb	r3, r3
 8002b7c:	4413      	add	r3, r2
 8002b7e:	f507 52b3 	add.w	r2, r7, #5728	; 0x1660
 8002b82:	f102 0204 	add.w	r2, r2, #4
 8002b86:	6013      	str	r3, [r2, #0]
            int startY = (p1.y - 1);
 8002b88:	f507 73d0 	add.w	r3, r7, #416	; 0x1a0
 8002b8c:	3b14      	subs	r3, #20
 8002b8e:	885b      	ldrh	r3, [r3, #2]
 8002b90:	3b01      	subs	r3, #1
 8002b92:	f507 52b3 	add.w	r2, r7, #5728	; 0x1660
 8002b96:	6013      	str	r3, [r2, #0]

            if (center_just_pressed) {
 8002b98:	f507 53b3 	add.w	r3, r7, #5728	; 0x1660
 8002b9c:	f103 0309 	add.w	r3, r3, #9
 8002ba0:	781b      	ldrb	r3, [r3, #0]
 8002ba2:	2b00      	cmp	r3, #0
 8002ba4:	d002      	beq.n	8002bac <main+0x3a8>
                buzzer_play_sfx(SFX_SHOOT);
 8002ba6:	2000      	movs	r0, #0
 8002ba8:	f7fe ffdc 	bl	8001b64 <buzzer_play_sfx>
            }

            bullets_handle_shoot(bullets, BULLET_POOL_SIZE,
 8002bac:	f507 53b3 	add.w	r3, r7, #5728	; 0x1660
 8002bb0:	f103 0309 	add.w	r3, r3, #9
 8002bb4:	781a      	ldrb	r2, [r3, #0]
 8002bb6:	f507 53b3 	add.w	r3, r7, #5728	; 0x1660
 8002bba:	681b      	ldr	r3, [r3, #0]
 8002bbc:	9300      	str	r3, [sp, #0]
 8002bbe:	f507 53b3 	add.w	r3, r7, #5728	; 0x1660
 8002bc2:	f103 0304 	add.w	r3, r3, #4
 8002bc6:	681b      	ldr	r3, [r3, #0]
 8002bc8:	2132      	movs	r1, #50	; 0x32
 8002bca:	f507 50b3 	add.w	r0, r7, #5728	; 0x1660
 8002bce:	f100 000c 	add.w	r0, r0, #12
 8002bd2:	6800      	ldr	r0, [r0, #0]
 8002bd4:	f7fe fee0 	bl	8001998 <bullets_handle_shoot>
                                 center_just_pressed, startX, startY);

            bullets_powerup_tick();
 8002bd8:	f7fe fecc 	bl	8001974 <bullets_powerup_tick>

            asteroid_gravity(bullets, ast);
 8002bdc:	f507 73b0 	add.w	r3, r7, #352	; 0x160
 8002be0:	3b14      	subs	r3, #20
 8002be2:	cb0e      	ldmia	r3, {r1, r2, r3}
 8002be4:	f507 50b3 	add.w	r0, r7, #5728	; 0x1660
 8002be8:	f100 000c 	add.w	r0, r0, #12
 8002bec:	6800      	ldr	r0, [r0, #0]
 8002bee:	f7fe fb3f 	bl	8001270 <asteroid_gravity>
            bullets_update(bullets, BULLET_POOL_SIZE);
 8002bf2:	2132      	movs	r1, #50	; 0x32
 8002bf4:	f507 53b3 	add.w	r3, r7, #5728	; 0x1660
 8002bf8:	f103 030c 	add.w	r3, r3, #12
 8002bfc:	6818      	ldr	r0, [r3, #0]
 8002bfe:	f7fe fd5f 	bl	80016c0 <bullets_update>
            bullets_update(enemyBullets, ENEMY_BULLET_POOL_SIZE);
 8002c02:	f107 0320 	add.w	r3, r7, #32
 8002c06:	3b14      	subs	r3, #20
 8002c08:	2110      	movs	r1, #16
 8002c0a:	4618      	mov	r0, r3
 8002c0c:	f7fe fd58 	bl	80016c0 <bullets_update>

            /* Enemy move/spawn */
            if (enemy_move_counter > 15) {
 8002c10:	f507 53b3 	add.w	r3, r7, #5728	; 0x1660
 8002c14:	f103 031c 	add.w	r3, r3, #28
 8002c18:	881b      	ldrh	r3, [r3, #0]
 8002c1a:	2b0f      	cmp	r3, #15
 8002c1c:	d90b      	bls.n	8002c36 <main+0x432>
                enemy_move_counter = 0;
 8002c1e:	2300      	movs	r3, #0
 8002c20:	f507 52b3 	add.w	r2, r7, #5728	; 0x1660
 8002c24:	f102 021c 	add.w	r2, r2, #28
 8002c28:	8013      	strh	r3, [r2, #0]
                enemies_update_pos(enemy_pool);
 8002c2a:	f507 73b0 	add.w	r3, r7, #352	; 0x160
 8002c2e:	3b08      	subs	r3, #8
 8002c30:	4618      	mov	r0, r3
 8002c32:	f7ff fae5 	bl	8002200 <enemies_update_pos>
            }

            if (enemy_spawn_counter > 80) {
 8002c36:	f507 53b3 	add.w	r3, r7, #5728	; 0x1660
 8002c3a:	f103 031e 	add.w	r3, r3, #30
 8002c3e:	881b      	ldrh	r3, [r3, #0]
 8002c40:	2b50      	cmp	r3, #80	; 0x50
 8002c42:	d911      	bls.n	8002c68 <main+0x464>
                enemy_spawn_counter = 0;
 8002c44:	2300      	movs	r3, #0
 8002c46:	f507 52b3 	add.w	r2, r7, #5728	; 0x1660
 8002c4a:	f102 021e 	add.w	r2, r2, #30
 8002c4e:	8013      	strh	r3, [r2, #0]
                enemies_spawn(enemy_pool);
 8002c50:	f507 73b0 	add.w	r3, r7, #352	; 0x160
 8002c54:	3b08      	subs	r3, #8
 8002c56:	4618      	mov	r0, r3
 8002c58:	f7ff fa40 	bl	80020dc <enemies_spawn>
                asteroid_update_pos(&ast);
 8002c5c:	f507 73b0 	add.w	r3, r7, #352	; 0x160
 8002c60:	3b14      	subs	r3, #20
 8002c62:	4618      	mov	r0, r3
 8002c64:	f7fe faf4 	bl	8001250 <asteroid_update_pos>
            }

            /* Fjender skyder */
            enemies_shoot(enemy_pool, enemyBullets, ENEMY_BULLET_POOL_SIZE);
 8002c68:	f107 0120 	add.w	r1, r7, #32
 8002c6c:	3914      	subs	r1, #20
 8002c6e:	f507 73b0 	add.w	r3, r7, #352	; 0x160
 8002c72:	3b08      	subs	r3, #8
 8002c74:	2210      	movs	r2, #16
 8002c76:	4618      	mov	r0, r3
 8002c78:	f7ff fb90 	bl	800239c <enemies_shoot>

            /* Enemy bullets + player hit SFX (detekter HP fald) */
            uint8_t hp_before = p1.hp;
 8002c7c:	f507 73d0 	add.w	r3, r7, #416	; 0x1a0
 8002c80:	3b14      	subs	r3, #20
 8002c82:	799b      	ldrb	r3, [r3, #6]
 8002c84:	f507 52b2 	add.w	r2, r7, #5696	; 0x1640
 8002c88:	f102 021f 	add.w	r2, r2, #31
 8002c8c:	7013      	strb	r3, [r2, #0]

            bullets_update(enemyBullets, ENEMY_BULLET_POOL_SIZE);
 8002c8e:	f107 0320 	add.w	r3, r7, #32
 8002c92:	3b14      	subs	r3, #20
 8002c94:	2110      	movs	r1, #16
 8002c96:	4618      	mov	r0, r3
 8002c98:	f7fe fd12 	bl	80016c0 <bullets_update>
            player_hit_by_enemy_bullets(enemyBullets, ENEMY_BULLET_POOL_SIZE, &p1);
 8002c9c:	f507 72d0 	add.w	r2, r7, #416	; 0x1a0
 8002ca0:	3a14      	subs	r2, #20
 8002ca2:	f107 0320 	add.w	r3, r7, #32
 8002ca6:	3b14      	subs	r3, #20
 8002ca8:	2110      	movs	r1, #16
 8002caa:	4618      	mov	r0, r3
 8002cac:	f000 f9fa 	bl	80030a4 <player_hit_by_enemy_bullets>

            if (p1.hp < hp_before) {
 8002cb0:	f507 73d0 	add.w	r3, r7, #416	; 0x1a0
 8002cb4:	3b14      	subs	r3, #20
 8002cb6:	799b      	ldrb	r3, [r3, #6]
 8002cb8:	f507 52b2 	add.w	r2, r7, #5696	; 0x1640
 8002cbc:	f102 021f 	add.w	r2, r2, #31
 8002cc0:	7812      	ldrb	r2, [r2, #0]
 8002cc2:	429a      	cmp	r2, r3
 8002cc4:	d902      	bls.n	8002ccc <main+0x4c8>
                buzzer_play_sfx(SFX_PLAYER_HIT);
 8002cc6:	2002      	movs	r0, #2
 8002cc8:	f7fe ff4c 	bl	8001b64 <buzzer_play_sfx>
            }


            /* Game over */
            if (p1.hp == 0) {
 8002ccc:	f507 73d0 	add.w	r3, r7, #416	; 0x1a0
 8002cd0:	3b14      	subs	r3, #20
 8002cd2:	799b      	ldrb	r3, [r3, #6]
 8002cd4:	2b00      	cmp	r3, #0
 8002cd6:	d10f      	bne.n	8002cf8 <main+0x4f4>
                buzzer_play_sfx(SFX_GAMEOVER);
 8002cd8:	2005      	movs	r0, #5
 8002cda:	f7fe ff43 	bl	8001b64 <buzzer_play_sfx>
                draw_game_over(score, highscore);
 8002cde:	f507 53b3 	add.w	r3, r7, #5728	; 0x1660
 8002ce2:	f103 0314 	add.w	r3, r3, #20
 8002ce6:	6819      	ldr	r1, [r3, #0]
 8002ce8:	f507 53b3 	add.w	r3, r7, #5728	; 0x1660
 8002cec:	f103 0318 	add.w	r3, r3, #24
 8002cf0:	6818      	ldr	r0, [r3, #0]
 8002cf2:	f7ff f839 	bl	8001d68 <draw_game_over>
                while (1) { } // stop spillet her (simpelt)
 8002cf6:	e7fe      	b.n	8002cf6 <main+0x4f2>
            }

            /* Hit enemies med player bullets */
            int bonus_collected = 0;
 8002cf8:	f107 0320 	add.w	r3, r7, #32
 8002cfc:	3b1c      	subs	r3, #28
 8002cfe:	2200      	movs	r2, #0
 8002d00:	601a      	str	r2, [r3, #0]
            int kills = bullets_hit_enemies(bullets, BULLET_POOL_SIZE,
 8002d02:	f107 0320 	add.w	r3, r7, #32
 8002d06:	3b1c      	subs	r3, #28
 8002d08:	f507 72b0 	add.w	r2, r7, #352	; 0x160
 8002d0c:	3a08      	subs	r2, #8
 8002d0e:	2132      	movs	r1, #50	; 0x32
 8002d10:	f507 50b3 	add.w	r0, r7, #5728	; 0x1660
 8002d14:	f100 000c 	add.w	r0, r0, #12
 8002d18:	6800      	ldr	r0, [r0, #0]
 8002d1a:	f7fe fd1f 	bl	800175c <bullets_hit_enemies>
 8002d1e:	f507 53b2 	add.w	r3, r7, #5696	; 0x1640
 8002d22:	f103 0318 	add.w	r3, r3, #24
 8002d26:	6018      	str	r0, [r3, #0]
                                           enemy_pool, &bonus_collected);

            if (kills > 0) {
 8002d28:	f507 53b2 	add.w	r3, r7, #5696	; 0x1640
 8002d2c:	f103 0318 	add.w	r3, r3, #24
 8002d30:	681b      	ldr	r3, [r3, #0]
 8002d32:	2b00      	cmp	r3, #0
 8002d34:	dd2d      	ble.n	8002d92 <main+0x58e>
                buzzer_play_sfx(SFX_ENEMY_DEATH);
 8002d36:	2001      	movs	r0, #1
 8002d38:	f7fe ff14 	bl	8001b64 <buzzer_play_sfx>

                score += (uint32_t)(kills * 10);
 8002d3c:	f507 53b2 	add.w	r3, r7, #5696	; 0x1640
 8002d40:	f103 0318 	add.w	r3, r3, #24
 8002d44:	681a      	ldr	r2, [r3, #0]
 8002d46:	4613      	mov	r3, r2
 8002d48:	009b      	lsls	r3, r3, #2
 8002d4a:	4413      	add	r3, r2
 8002d4c:	005b      	lsls	r3, r3, #1
 8002d4e:	461a      	mov	r2, r3
 8002d50:	f507 53b3 	add.w	r3, r7, #5728	; 0x1660
 8002d54:	f103 0318 	add.w	r3, r3, #24
 8002d58:	681b      	ldr	r3, [r3, #0]
 8002d5a:	4413      	add	r3, r2
 8002d5c:	f507 52b3 	add.w	r2, r7, #5728	; 0x1660
 8002d60:	f102 0218 	add.w	r2, r2, #24
 8002d64:	6013      	str	r3, [r2, #0]
                if (score > highscore)
 8002d66:	f507 53b3 	add.w	r3, r7, #5728	; 0x1660
 8002d6a:	f103 0318 	add.w	r3, r3, #24
 8002d6e:	681a      	ldr	r2, [r3, #0]
 8002d70:	f507 53b3 	add.w	r3, r7, #5728	; 0x1660
 8002d74:	f103 0314 	add.w	r3, r3, #20
 8002d78:	681b      	ldr	r3, [r3, #0]
 8002d7a:	429a      	cmp	r2, r3
 8002d7c:	d909      	bls.n	8002d92 <main+0x58e>
                    highscore = score;
 8002d7e:	f507 53b3 	add.w	r3, r7, #5728	; 0x1660
 8002d82:	f103 0318 	add.w	r3, r3, #24
 8002d86:	681b      	ldr	r3, [r3, #0]
 8002d88:	f507 52b3 	add.w	r2, r7, #5728	; 0x1660
 8002d8c:	f102 0214 	add.w	r2, r2, #20
 8002d90:	6013      	str	r3, [r2, #0]
            }

            if (bonus_collected) {
 8002d92:	f107 0320 	add.w	r3, r7, #32
 8002d96:	3b1c      	subs	r3, #28
 8002d98:	681b      	ldr	r3, [r3, #0]
 8002d9a:	2b00      	cmp	r3, #0
 8002d9c:	d005      	beq.n	8002daa <main+0x5a6>
                buzzer_play_sfx(SFX_BONUS);
 8002d9e:	2003      	movs	r0, #3
 8002da0:	f7fe fee0 	bl	8001b64 <buzzer_play_sfx>
                bullets_powerup_activate(POWERUP_TICKS);
 8002da4:	2064      	movs	r0, #100	; 0x64
 8002da6:	f7fe fdd5 	bl	8001954 <bullets_powerup_activate>
            }

            /* TEST: bonus efter 20 kills */
            if (bullets_test_should_powerup(20))
 8002daa:	2014      	movs	r0, #20
 8002dac:	f7fe fe16 	bl	80019dc <bullets_test_should_powerup>
 8002db0:	4603      	mov	r3, r0
 8002db2:	2b00      	cmp	r3, #0
 8002db4:	d002      	beq.n	8002dbc <main+0x5b8>
                bullets_powerup_activate(POWERUP_TICKS);
 8002db6:	2064      	movs	r0, #100	; 0x64
 8002db8:	f7fe fdcc 	bl	8001954 <bullets_powerup_activate>

            asteroid_enemies_collision(&ast, enemy_pool);
 8002dbc:	f507 72b0 	add.w	r2, r7, #352	; 0x160
 8002dc0:	3a08      	subs	r2, #8
 8002dc2:	f507 73b0 	add.w	r3, r7, #352	; 0x160
 8002dc6:	3b14      	subs	r3, #20
 8002dc8:	4611      	mov	r1, r2
 8002dca:	4618      	mov	r0, r3
 8002dcc:	f7fe faed 	bl	80013aa <asteroid_enemies_collision>

            /* Draw */
            player_push_buffer(current_buffer, p1);
 8002dd0:	f507 73d0 	add.w	r3, r7, #416	; 0x1a0
 8002dd4:	3b14      	subs	r3, #20
 8002dd6:	f607 40f8 	addw	r0, r7, #3320	; 0xcf8
 8002dda:	cb0e      	ldmia	r3, {r1, r2, r3}
 8002ddc:	f000 f918 	bl	8003010 <player_push_buffer>
            enemies_push_buffer(current_buffer, enemy_pool);
 8002de0:	f507 73b0 	add.w	r3, r7, #352	; 0x160
 8002de4:	3b08      	subs	r3, #8
 8002de6:	f607 42f8 	addw	r2, r7, #3320	; 0xcf8
 8002dea:	4619      	mov	r1, r3
 8002dec:	4610      	mov	r0, r2
 8002dee:	f7ff fa51 	bl	8002294 <enemies_push_buffer>

            bullets_push_buffer(current_buffer, enemyBullets, ENEMY_BULLET_POOL_SIZE);
 8002df2:	f107 0320 	add.w	r3, r7, #32
 8002df6:	3b14      	subs	r3, #20
 8002df8:	f607 40f8 	addw	r0, r7, #3320	; 0xcf8
 8002dfc:	2210      	movs	r2, #16
 8002dfe:	4619      	mov	r1, r3
 8002e00:	f7fe fd5e 	bl	80018c0 <bullets_push_buffer>
            bullets_push_buffer(current_buffer, bullets, BULLET_POOL_SIZE);
 8002e04:	f607 43f8 	addw	r3, r7, #3320	; 0xcf8
 8002e08:	2232      	movs	r2, #50	; 0x32
 8002e0a:	f507 51b3 	add.w	r1, r7, #5728	; 0x1660
 8002e0e:	f101 010c 	add.w	r1, r1, #12
 8002e12:	6809      	ldr	r1, [r1, #0]
 8002e14:	4618      	mov	r0, r3
 8002e16:	f7fe fd53 	bl	80018c0 <bullets_push_buffer>
            asteroid_push_buffer(current_buffer, ast);
 8002e1a:	f507 73b0 	add.w	r3, r7, #352	; 0x160
 8002e1e:	3b14      	subs	r3, #20
 8002e20:	f607 40f8 	addw	r0, r7, #3320	; 0xcf8
 8002e24:	cb0e      	ldmia	r3, {r1, r2, r3}
 8002e26:	f7fe f9b5 	bl	8001194 <asteroid_push_buffer>

            draw_buffer(current_buffer, shadow_buffer);
 8002e2a:	f507 7368 	add.w	r3, r7, #928	; 0x3a0
 8002e2e:	3b08      	subs	r3, #8
 8002e30:	f607 42f8 	addw	r2, r7, #3320	; 0xcf8
 8002e34:	4619      	mov	r1, r3
 8002e36:	4610      	mov	r0, r2
 8002e38:	f7ff f83a 	bl	8001eb0 <draw_buffer>

        	lcd_draw_heart(p1.hp, lcd_buffer);
 8002e3c:	f507 73d0 	add.w	r3, r7, #416	; 0x1a0
 8002e40:	3b14      	subs	r3, #20
 8002e42:	799a      	ldrb	r2, [r3, #6]
 8002e44:	f507 73d0 	add.w	r3, r7, #416	; 0x1a0
 8002e48:	3b08      	subs	r3, #8
 8002e4a:	4619      	mov	r1, r3
 8002e4c:	4610      	mov	r0, r2
 8002e4e:	f7ff fc03 	bl	8002658 <lcd_draw_heart>
        	lcd_draw_score(score, lcd_buffer);
 8002e52:	f507 53b3 	add.w	r3, r7, #5728	; 0x1660
 8002e56:	f103 0318 	add.w	r3, r3, #24
 8002e5a:	681a      	ldr	r2, [r3, #0]
 8002e5c:	f507 73d0 	add.w	r3, r7, #416	; 0x1a0
 8002e60:	3b08      	subs	r3, #8
 8002e62:	4619      	mov	r1, r3
 8002e64:	4610      	mov	r0, r2
 8002e66:	f7ff fc73 	bl	8002750 <lcd_draw_score>

            ui_draw_status(p1.hp, p1.hit_count, score, highscore);
 8002e6a:	f507 73d0 	add.w	r3, r7, #416	; 0x1a0
 8002e6e:	3b14      	subs	r3, #20
 8002e70:	799b      	ldrb	r3, [r3, #6]
 8002e72:	4618      	mov	r0, r3
 8002e74:	f507 73d0 	add.w	r3, r7, #416	; 0x1a0
 8002e78:	3b14      	subs	r3, #20
 8002e7a:	7a1b      	ldrb	r3, [r3, #8]
 8002e7c:	4619      	mov	r1, r3
 8002e7e:	f507 53b3 	add.w	r3, r7, #5728	; 0x1660
 8002e82:	f103 0314 	add.w	r3, r3, #20
 8002e86:	681b      	ldr	r3, [r3, #0]
 8002e88:	f507 52b3 	add.w	r2, r7, #5728	; 0x1660
 8002e8c:	f102 0218 	add.w	r2, r2, #24
 8002e90:	6812      	ldr	r2, [r2, #0]
 8002e92:	f7fe ff35 	bl	8001d00 <ui_draw_status>
            break;
 8002e96:	e006      	b.n	8002ea6 <main+0x6a2>
            continue;
 8002e98:	bf00      	nop
 8002e9a:	e563      	b.n	8002964 <main+0x160>
            break;
 8002e9c:	bf00      	nop
 8002e9e:	e561      	b.n	8002964 <main+0x160>
            break;
 8002ea0:	bf00      	nop
 8002ea2:	e55f      	b.n	8002964 <main+0x160>
            break;
 8002ea4:	bf00      	nop
        if (!timer_flag)
 8002ea6:	e55d      	b.n	8002964 <main+0x160>

08002ea8 <menu_draw>:
#include <stdio.h>



void menu_draw(void)
{
 8002ea8:	b580      	push	{r7, lr}
 8002eaa:	af00      	add	r7, sp, #0
	draw_border();
 8002eac:	f7ff f874 	bl	8001f98 <draw_border>

    gotoxy(20, 10);
 8002eb0:	210a      	movs	r1, #10
 8002eb2:	2014      	movs	r0, #20
 8002eb4:	f7fe f95a 	bl	800116c <gotoxy>
    printf("SPACE INVADERS");
 8002eb8:	480c      	ldr	r0, [pc, #48]	; (8002eec <menu_draw+0x44>)
 8002eba:	f000 fbd1 	bl	8003660 <iprintf>

    gotoxy(20, 12);
 8002ebe:	210c      	movs	r1, #12
 8002ec0:	2014      	movs	r0, #20
 8002ec2:	f7fe f953 	bl	800116c <gotoxy>
    printf("Press Center to start");
 8002ec6:	480a      	ldr	r0, [pc, #40]	; (8002ef0 <menu_draw+0x48>)
 8002ec8:	f000 fbca 	bl	8003660 <iprintf>

    gotoxy(20, 14);
 8002ecc:	210e      	movs	r1, #14
 8002ece:	2014      	movs	r0, #20
 8002ed0:	f7fe f94c 	bl	800116c <gotoxy>
    printf("Press UP for Help");
 8002ed4:	4807      	ldr	r0, [pc, #28]	; (8002ef4 <menu_draw+0x4c>)
 8002ed6:	f000 fbc3 	bl	8003660 <iprintf>

    gotoxy(20, 16);
 8002eda:	2110      	movs	r1, #16
 8002edc:	2014      	movs	r0, #20
 8002ede:	f7fe f945 	bl	800116c <gotoxy>
       printf("to hide game while playing press down");
 8002ee2:	4805      	ldr	r0, [pc, #20]	; (8002ef8 <menu_draw+0x50>)
 8002ee4:	f000 fbbc 	bl	8003660 <iprintf>


}
 8002ee8:	bf00      	nop
 8002eea:	bd80      	pop	{r7, pc}
 8002eec:	08005090 	.word	0x08005090
 8002ef0:	080050a0 	.word	0x080050a0
 8002ef4:	080050b8 	.word	0x080050b8
 8002ef8:	080050cc 	.word	0x080050cc

08002efc <help_draw>:
void help_draw(void)
{
 8002efc:	b580      	push	{r7, lr}
 8002efe:	af00      	add	r7, sp, #0
	draw_border();
 8002f00:	f7ff f84a 	bl	8001f98 <draw_border>

    gotoxy(10, 10);
 8002f04:	210a      	movs	r1, #10
 8002f06:	200a      	movs	r0, #10
 8002f08:	f7fe f930 	bl	800116c <gotoxy>
    printf("To move use the joystick left and right");
 8002f0c:	4809      	ldr	r0, [pc, #36]	; (8002f34 <help_draw+0x38>)
 8002f0e:	f000 fba7 	bl	8003660 <iprintf>

    gotoxy(10, 12);
 8002f12:	210c      	movs	r1, #12
 8002f14:	200a      	movs	r0, #10
 8002f16:	f7fe f929 	bl	800116c <gotoxy>
    printf("To shot press the joystick center(press stick down)");
 8002f1a:	4807      	ldr	r0, [pc, #28]	; (8002f38 <help_draw+0x3c>)
 8002f1c:	f000 fba0 	bl	8003660 <iprintf>

    gotoxy(20, 20);
 8002f20:	2114      	movs	r1, #20
 8002f22:	2014      	movs	r0, #20
 8002f24:	f7fe f922 	bl	800116c <gotoxy>
    printf("Press Center to start game");
 8002f28:	4804      	ldr	r0, [pc, #16]	; (8002f3c <help_draw+0x40>)
 8002f2a:	f000 fb99 	bl	8003660 <iprintf>

}
 8002f2e:	bf00      	nop
 8002f30:	bd80      	pop	{r7, pc}
 8002f32:	bf00      	nop
 8002f34:	080050f4 	.word	0x080050f4
 8002f38:	0800511c 	.word	0x0800511c
 8002f3c:	08005150 	.word	0x08005150

08002f40 <boss_draw>:
void boss_draw(void)
{
 8002f40:	b580      	push	{r7, lr}
 8002f42:	af00      	add	r7, sp, #0

	draw_border();
 8002f44:	f7ff f828 	bl	8001f98 <draw_border>

    gotoxy(40, 20);
 8002f48:	2114      	movs	r1, #20
 8002f4a:	2028      	movs	r0, #40	; 0x28
 8002f4c:	f7fe f90e 	bl	800116c <gotoxy>
    printf("SIKE");
 8002f50:	4805      	ldr	r0, [pc, #20]	; (8002f68 <boss_draw+0x28>)
 8002f52:	f000 fb85 	bl	8003660 <iprintf>
    gotoxy(60, 20);
 8002f56:	2114      	movs	r1, #20
 8002f58:	203c      	movs	r0, #60	; 0x3c
 8002f5a:	f7fe f907 	bl	800116c <gotoxy>
        printf("To continue press Center");
 8002f5e:	4803      	ldr	r0, [pc, #12]	; (8002f6c <boss_draw+0x2c>)
 8002f60:	f000 fb7e 	bl	8003660 <iprintf>


}
 8002f64:	bf00      	nop
 8002f66:	bd80      	pop	{r7, pc}
 8002f68:	0800516c 	.word	0x0800516c
 8002f6c:	08005174 	.word	0x08005174

08002f70 <menu_update>:

uint8_t menu_update(uint8_t input)
{
 8002f70:	b480      	push	{r7}
 8002f72:	b083      	sub	sp, #12
 8002f74:	af00      	add	r7, sp, #0
 8002f76:	4603      	mov	r3, r0
 8002f78:	71fb      	strb	r3, [r7, #7]
    // FIRE button starts game
    if (input & JOY_CENTER)
 8002f7a:	79fb      	ldrb	r3, [r7, #7]
 8002f7c:	f003 0310 	and.w	r3, r3, #16
 8002f80:	2b00      	cmp	r3, #0
 8002f82:	d001      	beq.n	8002f88 <menu_update+0x18>
        return 1;
 8002f84:	2301      	movs	r3, #1
 8002f86:	e00e      	b.n	8002fa6 <menu_update+0x36>
    else if (input & JOY_UP)
 8002f88:	79fb      	ldrb	r3, [r7, #7]
 8002f8a:	f003 0301 	and.w	r3, r3, #1
 8002f8e:	2b00      	cmp	r3, #0
 8002f90:	d001      	beq.n	8002f96 <menu_update+0x26>
    	return 2;
 8002f92:	2302      	movs	r3, #2
 8002f94:	e007      	b.n	8002fa6 <menu_update+0x36>
    else if (input & JOY_DOWN)
 8002f96:	79fb      	ldrb	r3, [r7, #7]
 8002f98:	f003 0302 	and.w	r3, r3, #2
 8002f9c:	2b00      	cmp	r3, #0
 8002f9e:	d001      	beq.n	8002fa4 <menu_update+0x34>
    	return 3;
 8002fa0:	2303      	movs	r3, #3
 8002fa2:	e000      	b.n	8002fa6 <menu_update+0x36>
    return 0;
 8002fa4:	2300      	movs	r3, #0
}
 8002fa6:	4618      	mov	r0, r3
 8002fa8:	370c      	adds	r7, #12
 8002faa:	46bd      	mov	sp, r7
 8002fac:	f85d 7b04 	ldr.w	r7, [sp], #4
 8002fb0:	4770      	bx	lr

08002fb2 <player_update_pos>:
#include "player.h"
#include "joystick.h"
#include "bullet.h"

void player_update_pos(uint8_t input, player *p1)
{
 8002fb2:	b480      	push	{r7}
 8002fb4:	b083      	sub	sp, #12
 8002fb6:	af00      	add	r7, sp, #0
 8002fb8:	4603      	mov	r3, r0
 8002fba:	6039      	str	r1, [r7, #0]
 8002fbc:	71fb      	strb	r3, [r7, #7]
    if (input & JOY_LEFT)
 8002fbe:	79fb      	ldrb	r3, [r7, #7]
 8002fc0:	f003 0304 	and.w	r3, r3, #4
 8002fc4:	2b00      	cmp	r3, #0
 8002fc6:	d009      	beq.n	8002fdc <player_update_pos+0x2a>
    {
        if (p1->x > 1)
 8002fc8:	683b      	ldr	r3, [r7, #0]
 8002fca:	881b      	ldrh	r3, [r3, #0]
 8002fcc:	2b01      	cmp	r3, #1
 8002fce:	d905      	bls.n	8002fdc <player_update_pos+0x2a>
            p1->x--;
 8002fd0:	683b      	ldr	r3, [r7, #0]
 8002fd2:	881b      	ldrh	r3, [r3, #0]
 8002fd4:	3b01      	subs	r3, #1
 8002fd6:	b29a      	uxth	r2, r3
 8002fd8:	683b      	ldr	r3, [r7, #0]
 8002fda:	801a      	strh	r2, [r3, #0]
    }

    if (input & JOY_RIGHT)
 8002fdc:	79fb      	ldrb	r3, [r7, #7]
 8002fde:	f003 0308 	and.w	r3, r3, #8
 8002fe2:	2b00      	cmp	r3, #0
 8002fe4:	d00e      	beq.n	8003004 <player_update_pos+0x52>
    {
        if (p1->x < SCREEN_COLS - p1->sx - 1)
 8002fe6:	683b      	ldr	r3, [r7, #0]
 8002fe8:	881b      	ldrh	r3, [r3, #0]
 8002fea:	461a      	mov	r2, r3
 8002fec:	683b      	ldr	r3, [r7, #0]
 8002fee:	791b      	ldrb	r3, [r3, #4]
 8002ff0:	f1c3 033b 	rsb	r3, r3, #59	; 0x3b
 8002ff4:	429a      	cmp	r2, r3
 8002ff6:	da05      	bge.n	8003004 <player_update_pos+0x52>
            p1->x++;
 8002ff8:	683b      	ldr	r3, [r7, #0]
 8002ffa:	881b      	ldrh	r3, [r3, #0]
 8002ffc:	3301      	adds	r3, #1
 8002ffe:	b29a      	uxth	r2, r3
 8003000:	683b      	ldr	r3, [r7, #0]
 8003002:	801a      	strh	r2, [r3, #0]
    }
}
 8003004:	bf00      	nop
 8003006:	370c      	adds	r7, #12
 8003008:	46bd      	mov	sp, r7
 800300a:	f85d 7b04 	ldr.w	r7, [sp], #4
 800300e:	4770      	bx	lr

08003010 <player_push_buffer>:

void player_push_buffer(uint8_t buffer[][SCREEN_COLS], player p)
{
 8003010:	b490      	push	{r4, r7}
 8003012:	b08a      	sub	sp, #40	; 0x28
 8003014:	af00      	add	r7, sp, #0
 8003016:	60f8      	str	r0, [r7, #12]
 8003018:	4638      	mov	r0, r7
 800301a:	e880 000e 	stmia.w	r0, {r1, r2, r3}
         ^
        / \
       /\
    */

    uint8_t player_sprite[3][5] = {
 800301e:	4b20      	ldr	r3, [pc, #128]	; (80030a0 <player_push_buffer+0x90>)
 8003020:	f107 0410 	add.w	r4, r7, #16
 8003024:	cb0f      	ldmia	r3, {r0, r1, r2, r3}
 8003026:	c407      	stmia	r4!, {r0, r1, r2}
 8003028:	8023      	strh	r3, [r4, #0]
 800302a:	3402      	adds	r4, #2
 800302c:	0c1b      	lsrs	r3, r3, #16
 800302e:	7023      	strb	r3, [r4, #0]
        {' ', ' ', '^', ' ', ' '},
        {' ', '/', ' ', '\\', ' '},
        {'/', 205, 219, 205, '\\'}
    };

    for (int i = 0; i < 3; i++)
 8003030:	2300      	movs	r3, #0
 8003032:	627b      	str	r3, [r7, #36]	; 0x24
 8003034:	e02b      	b.n	800308e <player_push_buffer+0x7e>
    {
        for (int j = 0; j < 5; j++)
 8003036:	2300      	movs	r3, #0
 8003038:	623b      	str	r3, [r7, #32]
 800303a:	e022      	b.n	8003082 <player_push_buffer+0x72>
        {
            buffer[p.y - i][p.x + j] = player_sprite[p.sy - i - 1][j];
 800303c:	797b      	ldrb	r3, [r7, #5]
 800303e:	461a      	mov	r2, r3
 8003040:	6a7b      	ldr	r3, [r7, #36]	; 0x24
 8003042:	1ad3      	subs	r3, r2, r3
 8003044:	1e5a      	subs	r2, r3, #1
 8003046:	887b      	ldrh	r3, [r7, #2]
 8003048:	4619      	mov	r1, r3
 800304a:	6a7b      	ldr	r3, [r7, #36]	; 0x24
 800304c:	1acb      	subs	r3, r1, r3
 800304e:	4619      	mov	r1, r3
 8003050:	460b      	mov	r3, r1
 8003052:	011b      	lsls	r3, r3, #4
 8003054:	1a5b      	subs	r3, r3, r1
 8003056:	009b      	lsls	r3, r3, #2
 8003058:	4619      	mov	r1, r3
 800305a:	68fb      	ldr	r3, [r7, #12]
 800305c:	1858      	adds	r0, r3, r1
 800305e:	883b      	ldrh	r3, [r7, #0]
 8003060:	4619      	mov	r1, r3
 8003062:	6a3b      	ldr	r3, [r7, #32]
 8003064:	4419      	add	r1, r3
 8003066:	4613      	mov	r3, r2
 8003068:	009b      	lsls	r3, r3, #2
 800306a:	4413      	add	r3, r2
 800306c:	f107 0228 	add.w	r2, r7, #40	; 0x28
 8003070:	441a      	add	r2, r3
 8003072:	6a3b      	ldr	r3, [r7, #32]
 8003074:	4413      	add	r3, r2
 8003076:	3b18      	subs	r3, #24
 8003078:	781b      	ldrb	r3, [r3, #0]
 800307a:	5443      	strb	r3, [r0, r1]
        for (int j = 0; j < 5; j++)
 800307c:	6a3b      	ldr	r3, [r7, #32]
 800307e:	3301      	adds	r3, #1
 8003080:	623b      	str	r3, [r7, #32]
 8003082:	6a3b      	ldr	r3, [r7, #32]
 8003084:	2b04      	cmp	r3, #4
 8003086:	ddd9      	ble.n	800303c <player_push_buffer+0x2c>
    for (int i = 0; i < 3; i++)
 8003088:	6a7b      	ldr	r3, [r7, #36]	; 0x24
 800308a:	3301      	adds	r3, #1
 800308c:	627b      	str	r3, [r7, #36]	; 0x24
 800308e:	6a7b      	ldr	r3, [r7, #36]	; 0x24
 8003090:	2b02      	cmp	r3, #2
 8003092:	ddd0      	ble.n	8003036 <player_push_buffer+0x26>
        }
    }
} //  VIGTIG: lukker player_push_buffer korrekt her
 8003094:	bf00      	nop
 8003096:	bf00      	nop
 8003098:	3728      	adds	r7, #40	; 0x28
 800309a:	46bd      	mov	sp, r7
 800309c:	bc90      	pop	{r4, r7}
 800309e:	4770      	bx	lr
 80030a0:	08005190 	.word	0x08005190

080030a4 <player_hit_by_enemy_bullets>:
void player_hit_by_enemy_bullets(Bullet *enemyBullets,
                                 int count,
                                 player *p)
{
 80030a4:	b480      	push	{r7}
 80030a6:	b08d      	sub	sp, #52	; 0x34
 80030a8:	af00      	add	r7, sp, #0
 80030aa:	60f8      	str	r0, [r7, #12]
 80030ac:	60b9      	str	r1, [r7, #8]
 80030ae:	607a      	str	r2, [r7, #4]
    int left   = p->x - 3;
 80030b0:	687b      	ldr	r3, [r7, #4]
 80030b2:	881b      	ldrh	r3, [r3, #0]
 80030b4:	3b03      	subs	r3, #3
 80030b6:	62bb      	str	r3, [r7, #40]	; 0x28
    int right  = p->x + p->sx + 3;
 80030b8:	687b      	ldr	r3, [r7, #4]
 80030ba:	881b      	ldrh	r3, [r3, #0]
 80030bc:	461a      	mov	r2, r3
 80030be:	687b      	ldr	r3, [r7, #4]
 80030c0:	791b      	ldrb	r3, [r3, #4]
 80030c2:	4413      	add	r3, r2
 80030c4:	3303      	adds	r3, #3
 80030c6:	627b      	str	r3, [r7, #36]	; 0x24
    int bottom = p->y;
 80030c8:	687b      	ldr	r3, [r7, #4]
 80030ca:	885b      	ldrh	r3, [r3, #2]
 80030cc:	623b      	str	r3, [r7, #32]
    int top    = p->y - p->sy - 2;
 80030ce:	687b      	ldr	r3, [r7, #4]
 80030d0:	885b      	ldrh	r3, [r3, #2]
 80030d2:	461a      	mov	r2, r3
 80030d4:	687b      	ldr	r3, [r7, #4]
 80030d6:	795b      	ldrb	r3, [r3, #5]
 80030d8:	1ad3      	subs	r3, r2, r3
 80030da:	3b02      	subs	r3, #2
 80030dc:	61fb      	str	r3, [r7, #28]

    for (int i = 0; i < count; i++)
 80030de:	2300      	movs	r3, #0
 80030e0:	62fb      	str	r3, [r7, #44]	; 0x2c
 80030e2:	e059      	b.n	8003198 <player_hit_by_enemy_bullets+0xf4>
    {
        if (!enemyBullets[i].active)
 80030e4:	6afa      	ldr	r2, [r7, #44]	; 0x2c
 80030e6:	4613      	mov	r3, r2
 80030e8:	009b      	lsls	r3, r3, #2
 80030ea:	4413      	add	r3, r2
 80030ec:	009b      	lsls	r3, r3, #2
 80030ee:	461a      	mov	r2, r3
 80030f0:	68fb      	ldr	r3, [r7, #12]
 80030f2:	4413      	add	r3, r2
 80030f4:	7c1b      	ldrb	r3, [r3, #16]
 80030f6:	f083 0301 	eor.w	r3, r3, #1
 80030fa:	b2db      	uxtb	r3, r3
 80030fc:	2b00      	cmp	r3, #0
 80030fe:	d147      	bne.n	8003190 <player_hit_by_enemy_bullets+0xec>
            continue;

        int bx = (int)(enemyBullets[i].x >> BULLET_FP_SHIFT);
 8003100:	6afa      	ldr	r2, [r7, #44]	; 0x2c
 8003102:	4613      	mov	r3, r2
 8003104:	009b      	lsls	r3, r3, #2
 8003106:	4413      	add	r3, r2
 8003108:	009b      	lsls	r3, r3, #2
 800310a:	461a      	mov	r2, r3
 800310c:	68fb      	ldr	r3, [r7, #12]
 800310e:	4413      	add	r3, r2
 8003110:	681b      	ldr	r3, [r3, #0]
 8003112:	121b      	asrs	r3, r3, #8
 8003114:	61bb      	str	r3, [r7, #24]
        int by = (int)(enemyBullets[i].y >> BULLET_FP_SHIFT);
 8003116:	6afa      	ldr	r2, [r7, #44]	; 0x2c
 8003118:	4613      	mov	r3, r2
 800311a:	009b      	lsls	r3, r3, #2
 800311c:	4413      	add	r3, r2
 800311e:	009b      	lsls	r3, r3, #2
 8003120:	461a      	mov	r2, r3
 8003122:	68fb      	ldr	r3, [r7, #12]
 8003124:	4413      	add	r3, r2
 8003126:	685b      	ldr	r3, [r3, #4]
 8003128:	121b      	asrs	r3, r3, #8
 800312a:	617b      	str	r3, [r7, #20]

        if (bx >= left && bx <= right &&
 800312c:	69ba      	ldr	r2, [r7, #24]
 800312e:	6abb      	ldr	r3, [r7, #40]	; 0x28
 8003130:	429a      	cmp	r2, r3
 8003132:	db2e      	blt.n	8003192 <player_hit_by_enemy_bullets+0xee>
 8003134:	69ba      	ldr	r2, [r7, #24]
 8003136:	6a7b      	ldr	r3, [r7, #36]	; 0x24
 8003138:	429a      	cmp	r2, r3
 800313a:	dc2a      	bgt.n	8003192 <player_hit_by_enemy_bullets+0xee>
 800313c:	697a      	ldr	r2, [r7, #20]
 800313e:	69fb      	ldr	r3, [r7, #28]
 8003140:	429a      	cmp	r2, r3
 8003142:	db26      	blt.n	8003192 <player_hit_by_enemy_bullets+0xee>
            by >= top  && by <= bottom)
 8003144:	697a      	ldr	r2, [r7, #20]
 8003146:	6a3b      	ldr	r3, [r7, #32]
 8003148:	429a      	cmp	r2, r3
 800314a:	dc22      	bgt.n	8003192 <player_hit_by_enemy_bullets+0xee>
        {
            enemyBullets[i].active = 0;
 800314c:	6afa      	ldr	r2, [r7, #44]	; 0x2c
 800314e:	4613      	mov	r3, r2
 8003150:	009b      	lsls	r3, r3, #2
 8003152:	4413      	add	r3, r2
 8003154:	009b      	lsls	r3, r3, #2
 8003156:	461a      	mov	r2, r3
 8003158:	68fb      	ldr	r3, [r7, #12]
 800315a:	4413      	add	r3, r2
 800315c:	2200      	movs	r2, #0
 800315e:	741a      	strb	r2, [r3, #16]

            p->hit_count++;
 8003160:	687b      	ldr	r3, [r7, #4]
 8003162:	7a1b      	ldrb	r3, [r3, #8]
 8003164:	3301      	adds	r3, #1
 8003166:	b2da      	uxtb	r2, r3
 8003168:	687b      	ldr	r3, [r7, #4]
 800316a:	721a      	strb	r2, [r3, #8]

            if (p->hit_count >= 5)
 800316c:	687b      	ldr	r3, [r7, #4]
 800316e:	7a1b      	ldrb	r3, [r3, #8]
 8003170:	2b04      	cmp	r3, #4
 8003172:	d916      	bls.n	80031a2 <player_hit_by_enemy_bullets+0xfe>
            {
                p->hit_count = 0;
 8003174:	687b      	ldr	r3, [r7, #4]
 8003176:	2200      	movs	r2, #0
 8003178:	721a      	strb	r2, [r3, #8]
                if (p->hp > 0)
 800317a:	687b      	ldr	r3, [r7, #4]
 800317c:	799b      	ldrb	r3, [r3, #6]
 800317e:	2b00      	cmp	r3, #0
 8003180:	d00f      	beq.n	80031a2 <player_hit_by_enemy_bullets+0xfe>
                    p->hp--;
 8003182:	687b      	ldr	r3, [r7, #4]
 8003184:	799b      	ldrb	r3, [r3, #6]
 8003186:	3b01      	subs	r3, #1
 8003188:	b2da      	uxtb	r2, r3
 800318a:	687b      	ldr	r3, [r7, #4]
 800318c:	719a      	strb	r2, [r3, #6]
            }

            return;
 800318e:	e008      	b.n	80031a2 <player_hit_by_enemy_bullets+0xfe>
            continue;
 8003190:	bf00      	nop
    for (int i = 0; i < count; i++)
 8003192:	6afb      	ldr	r3, [r7, #44]	; 0x2c
 8003194:	3301      	adds	r3, #1
 8003196:	62fb      	str	r3, [r7, #44]	; 0x2c
 8003198:	6afa      	ldr	r2, [r7, #44]	; 0x2c
 800319a:	68bb      	ldr	r3, [r7, #8]
 800319c:	429a      	cmp	r2, r3
 800319e:	dba1      	blt.n	80030e4 <player_hit_by_enemy_bullets+0x40>
 80031a0:	e000      	b.n	80031a4 <player_hit_by_enemy_bullets+0x100>
            return;
 80031a2:	bf00      	nop
        }
    }
}
 80031a4:	3734      	adds	r7, #52	; 0x34
 80031a6:	46bd      	mov	sp, r7
 80031a8:	f85d 7b04 	ldr.w	r7, [sp], #4
 80031ac:	4770      	bx	lr

080031ae <_getpid>:
void initialise_monitor_handles()
{
}

int _getpid(void)
{
 80031ae:	b480      	push	{r7}
 80031b0:	af00      	add	r7, sp, #0
	return 1;
 80031b2:	2301      	movs	r3, #1
}
 80031b4:	4618      	mov	r0, r3
 80031b6:	46bd      	mov	sp, r7
 80031b8:	f85d 7b04 	ldr.w	r7, [sp], #4
 80031bc:	4770      	bx	lr

080031be <_kill>:

int _kill(int pid, int sig)
{
 80031be:	b580      	push	{r7, lr}
 80031c0:	b082      	sub	sp, #8
 80031c2:	af00      	add	r7, sp, #0
 80031c4:	6078      	str	r0, [r7, #4]
 80031c6:	6039      	str	r1, [r7, #0]
	errno = EINVAL;
 80031c8:	f000 fa18 	bl	80035fc <__errno>
 80031cc:	4603      	mov	r3, r0
 80031ce:	2216      	movs	r2, #22
 80031d0:	601a      	str	r2, [r3, #0]
	return -1;
 80031d2:	f04f 33ff 	mov.w	r3, #4294967295
}
 80031d6:	4618      	mov	r0, r3
 80031d8:	3708      	adds	r7, #8
 80031da:	46bd      	mov	sp, r7
 80031dc:	bd80      	pop	{r7, pc}

080031de <_exit>:

void _exit (int status)
{
 80031de:	b580      	push	{r7, lr}
 80031e0:	b082      	sub	sp, #8
 80031e2:	af00      	add	r7, sp, #0
 80031e4:	6078      	str	r0, [r7, #4]
	_kill(status, -1);
 80031e6:	f04f 31ff 	mov.w	r1, #4294967295
 80031ea:	6878      	ldr	r0, [r7, #4]
 80031ec:	f7ff ffe7 	bl	80031be <_kill>
	while (1) {}		/* Make sure we hang here */
 80031f0:	e7fe      	b.n	80031f0 <_exit+0x12>

080031f2 <_read>:
}

__attribute__((weak)) int _read(int file, char *ptr, int len)
{
 80031f2:	b580      	push	{r7, lr}
 80031f4:	b086      	sub	sp, #24
 80031f6:	af00      	add	r7, sp, #0
 80031f8:	60f8      	str	r0, [r7, #12]
 80031fa:	60b9      	str	r1, [r7, #8]
 80031fc:	607a      	str	r2, [r7, #4]
	int DataIdx;

	for (DataIdx = 0; DataIdx < len; DataIdx++)
 80031fe:	2300      	movs	r3, #0
 8003200:	617b      	str	r3, [r7, #20]
 8003202:	e00a      	b.n	800321a <_read+0x28>
	{
		*ptr++ = __io_getchar();
 8003204:	f3af 8000 	nop.w
 8003208:	4601      	mov	r1, r0
 800320a:	68bb      	ldr	r3, [r7, #8]
 800320c:	1c5a      	adds	r2, r3, #1
 800320e:	60ba      	str	r2, [r7, #8]
 8003210:	b2ca      	uxtb	r2, r1
 8003212:	701a      	strb	r2, [r3, #0]
	for (DataIdx = 0; DataIdx < len; DataIdx++)
 8003214:	697b      	ldr	r3, [r7, #20]
 8003216:	3301      	adds	r3, #1
 8003218:	617b      	str	r3, [r7, #20]
 800321a:	697a      	ldr	r2, [r7, #20]
 800321c:	687b      	ldr	r3, [r7, #4]
 800321e:	429a      	cmp	r2, r3
 8003220:	dbf0      	blt.n	8003204 <_read+0x12>
	}

return len;
 8003222:	687b      	ldr	r3, [r7, #4]
}
 8003224:	4618      	mov	r0, r3
 8003226:	3718      	adds	r7, #24
 8003228:	46bd      	mov	sp, r7
 800322a:	bd80      	pop	{r7, pc}

0800322c <_close>:
	}
	return len;
}

int _close(int file)
{
 800322c:	b480      	push	{r7}
 800322e:	b083      	sub	sp, #12
 8003230:	af00      	add	r7, sp, #0
 8003232:	6078      	str	r0, [r7, #4]
	return -1;
 8003234:	f04f 33ff 	mov.w	r3, #4294967295
}
 8003238:	4618      	mov	r0, r3
 800323a:	370c      	adds	r7, #12
 800323c:	46bd      	mov	sp, r7
 800323e:	f85d 7b04 	ldr.w	r7, [sp], #4
 8003242:	4770      	bx	lr

08003244 <_fstat>:


int _fstat(int file, struct stat *st)
{
 8003244:	b480      	push	{r7}
 8003246:	b083      	sub	sp, #12
 8003248:	af00      	add	r7, sp, #0
 800324a:	6078      	str	r0, [r7, #4]
 800324c:	6039      	str	r1, [r7, #0]
	st->st_mode = S_IFCHR;
 800324e:	683b      	ldr	r3, [r7, #0]
 8003250:	f44f 5200 	mov.w	r2, #8192	; 0x2000
 8003254:	605a      	str	r2, [r3, #4]
	return 0;
 8003256:	2300      	movs	r3, #0
}
 8003258:	4618      	mov	r0, r3
 800325a:	370c      	adds	r7, #12
 800325c:	46bd      	mov	sp, r7
 800325e:	f85d 7b04 	ldr.w	r7, [sp], #4
 8003262:	4770      	bx	lr

08003264 <_isatty>:

int _isatty(int file)
{
 8003264:	b480      	push	{r7}
 8003266:	b083      	sub	sp, #12
 8003268:	af00      	add	r7, sp, #0
 800326a:	6078      	str	r0, [r7, #4]
	return 1;
 800326c:	2301      	movs	r3, #1
}
 800326e:	4618      	mov	r0, r3
 8003270:	370c      	adds	r7, #12
 8003272:	46bd      	mov	sp, r7
 8003274:	f85d 7b04 	ldr.w	r7, [sp], #4
 8003278:	4770      	bx	lr

0800327a <_lseek>:

int _lseek(int file, int ptr, int dir)
{
 800327a:	b480      	push	{r7}
 800327c:	b085      	sub	sp, #20
 800327e:	af00      	add	r7, sp, #0
 8003280:	60f8      	str	r0, [r7, #12]
 8003282:	60b9      	str	r1, [r7, #8]
 8003284:	607a      	str	r2, [r7, #4]
	return 0;
 8003286:	2300      	movs	r3, #0
}
 8003288:	4618      	mov	r0, r3
 800328a:	3714      	adds	r7, #20
 800328c:	46bd      	mov	sp, r7
 800328e:	f85d 7b04 	ldr.w	r7, [sp], #4
 8003292:	4770      	bx	lr

08003294 <_sbrk>:
/**
 _sbrk
 Increase program data space. Malloc and related functions depend on this
**/
caddr_t _sbrk(int incr)
{
 8003294:	b580      	push	{r7, lr}
 8003296:	b084      	sub	sp, #16
 8003298:	af00      	add	r7, sp, #0
 800329a:	6078      	str	r0, [r7, #4]
	extern char end asm("end");
	static char *heap_end;
	char *prev_heap_end;

	if (heap_end == 0)
 800329c:	4b11      	ldr	r3, [pc, #68]	; (80032e4 <_sbrk+0x50>)
 800329e:	681b      	ldr	r3, [r3, #0]
 80032a0:	2b00      	cmp	r3, #0
 80032a2:	d102      	bne.n	80032aa <_sbrk+0x16>
		heap_end = &end;
 80032a4:	4b0f      	ldr	r3, [pc, #60]	; (80032e4 <_sbrk+0x50>)
 80032a6:	4a10      	ldr	r2, [pc, #64]	; (80032e8 <_sbrk+0x54>)
 80032a8:	601a      	str	r2, [r3, #0]

	prev_heap_end = heap_end;
 80032aa:	4b0e      	ldr	r3, [pc, #56]	; (80032e4 <_sbrk+0x50>)
 80032ac:	681b      	ldr	r3, [r3, #0]
 80032ae:	60fb      	str	r3, [r7, #12]
	if (heap_end + incr > stack_ptr)
 80032b0:	4b0c      	ldr	r3, [pc, #48]	; (80032e4 <_sbrk+0x50>)
 80032b2:	681a      	ldr	r2, [r3, #0]
 80032b4:	687b      	ldr	r3, [r7, #4]
 80032b6:	4413      	add	r3, r2
 80032b8:	466a      	mov	r2, sp
 80032ba:	4293      	cmp	r3, r2
 80032bc:	d907      	bls.n	80032ce <_sbrk+0x3a>
	{
		errno = ENOMEM;
 80032be:	f000 f99d 	bl	80035fc <__errno>
 80032c2:	4603      	mov	r3, r0
 80032c4:	220c      	movs	r2, #12
 80032c6:	601a      	str	r2, [r3, #0]
		return (caddr_t) -1;
 80032c8:	f04f 33ff 	mov.w	r3, #4294967295
 80032cc:	e006      	b.n	80032dc <_sbrk+0x48>
	}

	heap_end += incr;
 80032ce:	4b05      	ldr	r3, [pc, #20]	; (80032e4 <_sbrk+0x50>)
 80032d0:	681a      	ldr	r2, [r3, #0]
 80032d2:	687b      	ldr	r3, [r7, #4]
 80032d4:	4413      	add	r3, r2
 80032d6:	4a03      	ldr	r2, [pc, #12]	; (80032e4 <_sbrk+0x50>)
 80032d8:	6013      	str	r3, [r2, #0]

	return (caddr_t) prev_heap_end;
 80032da:	68fb      	ldr	r3, [r7, #12]
}
 80032dc:	4618      	mov	r0, r3
 80032de:	3710      	adds	r7, #16
 80032e0:	46bd      	mov	sp, r7
 80032e2:	bd80      	pop	{r7, pc}
 80032e4:	20000608 	.word	0x20000608
 80032e8:	20000628 	.word	0x20000628

080032ec <SystemInit>:
  *         SystemFrequency variable.
  * @param  None
  * @retval None
  */
void SystemInit(void)
{
 80032ec:	b580      	push	{r7, lr}
 80032ee:	af00      	add	r7, sp, #0
  /* FPU settings ------------------------------------------------------------*/
  #if (__FPU_PRESENT == 1) && (__FPU_USED == 1)
    SCB->CPACR |= ((3UL << 10*2)|(3UL << 11*2));  /* set CP10 and CP11 Full Access */
 80032f0:	4b1f      	ldr	r3, [pc, #124]	; (8003370 <SystemInit+0x84>)
 80032f2:	f8d3 3088 	ldr.w	r3, [r3, #136]	; 0x88
 80032f6:	4a1e      	ldr	r2, [pc, #120]	; (8003370 <SystemInit+0x84>)
 80032f8:	f443 0370 	orr.w	r3, r3, #15728640	; 0xf00000
 80032fc:	f8c2 3088 	str.w	r3, [r2, #136]	; 0x88
  #endif

  /* Reset the RCC clock configuration to the default reset state ------------*/
  /* Set HSION bit */
  RCC->CR |= (uint32_t)0x00000001;
 8003300:	4b1c      	ldr	r3, [pc, #112]	; (8003374 <SystemInit+0x88>)
 8003302:	681b      	ldr	r3, [r3, #0]
 8003304:	4a1b      	ldr	r2, [pc, #108]	; (8003374 <SystemInit+0x88>)
 8003306:	f043 0301 	orr.w	r3, r3, #1
 800330a:	6013      	str	r3, [r2, #0]

  /* Reset CFGR register */
  RCC->CFGR &= 0xF87FC00C;
 800330c:	4b19      	ldr	r3, [pc, #100]	; (8003374 <SystemInit+0x88>)
 800330e:	685a      	ldr	r2, [r3, #4]
 8003310:	4918      	ldr	r1, [pc, #96]	; (8003374 <SystemInit+0x88>)
 8003312:	4b19      	ldr	r3, [pc, #100]	; (8003378 <SystemInit+0x8c>)
 8003314:	4013      	ands	r3, r2
 8003316:	604b      	str	r3, [r1, #4]

  /* Reset HSEON, CSSON and PLLON bits */
  RCC->CR &= (uint32_t)0xFEF6FFFF;
 8003318:	4b16      	ldr	r3, [pc, #88]	; (8003374 <SystemInit+0x88>)
 800331a:	681b      	ldr	r3, [r3, #0]
 800331c:	4a15      	ldr	r2, [pc, #84]	; (8003374 <SystemInit+0x88>)
 800331e:	f023 7384 	bic.w	r3, r3, #17301504	; 0x1080000
 8003322:	f423 3380 	bic.w	r3, r3, #65536	; 0x10000
 8003326:	6013      	str	r3, [r2, #0]

  /* Reset HSEBYP bit */
  RCC->CR &= (uint32_t)0xFFFBFFFF;
 8003328:	4b12      	ldr	r3, [pc, #72]	; (8003374 <SystemInit+0x88>)
 800332a:	681b      	ldr	r3, [r3, #0]
 800332c:	4a11      	ldr	r2, [pc, #68]	; (8003374 <SystemInit+0x88>)
 800332e:	f423 2380 	bic.w	r3, r3, #262144	; 0x40000
 8003332:	6013      	str	r3, [r2, #0]

  /* Reset PLLSRC, PLLXTPRE, PLLMUL and USBPRE bits */
  RCC->CFGR &= (uint32_t)0xFF80FFFF;
 8003334:	4b0f      	ldr	r3, [pc, #60]	; (8003374 <SystemInit+0x88>)
 8003336:	685b      	ldr	r3, [r3, #4]
 8003338:	4a0e      	ldr	r2, [pc, #56]	; (8003374 <SystemInit+0x88>)
 800333a:	f423 03fe 	bic.w	r3, r3, #8323072	; 0x7f0000
 800333e:	6053      	str	r3, [r2, #4]

  /* Reset PREDIV1[3:0] bits */
  RCC->CFGR2 &= (uint32_t)0xFFFFFFF0;
 8003340:	4b0c      	ldr	r3, [pc, #48]	; (8003374 <SystemInit+0x88>)
 8003342:	6adb      	ldr	r3, [r3, #44]	; 0x2c
 8003344:	4a0b      	ldr	r2, [pc, #44]	; (8003374 <SystemInit+0x88>)
 8003346:	f023 030f 	bic.w	r3, r3, #15
 800334a:	62d3      	str	r3, [r2, #44]	; 0x2c

  /* Reset USARTSW[1:0], I2CSW and TIMs bits */
  RCC->CFGR3 &= (uint32_t)0xFF00FCCC;
 800334c:	4b09      	ldr	r3, [pc, #36]	; (8003374 <SystemInit+0x88>)
 800334e:	6b1a      	ldr	r2, [r3, #48]	; 0x30
 8003350:	4908      	ldr	r1, [pc, #32]	; (8003374 <SystemInit+0x88>)
 8003352:	4b0a      	ldr	r3, [pc, #40]	; (800337c <SystemInit+0x90>)
 8003354:	4013      	ands	r3, r2
 8003356:	630b      	str	r3, [r1, #48]	; 0x30
  
  /* Disable all interrupts */
  RCC->CIR = 0x00000000;
 8003358:	4b06      	ldr	r3, [pc, #24]	; (8003374 <SystemInit+0x88>)
 800335a:	2200      	movs	r2, #0
 800335c:	609a      	str	r2, [r3, #8]

  /* Configure the System clock source, PLL Multiplier and Divider factors, 
     AHB/APBx prescalers and Flash settings ----------------------------------*/
  SetSysClock();
 800335e:	f000 f80f 	bl	8003380 <SetSysClock>
  
#ifdef VECT_TAB_SRAM
  SCB->VTOR = SRAM_BASE | VECT_TAB_OFFSET; /* Vector Table Relocation in Internal SRAM. */
#else
  SCB->VTOR = FLASH_BASE | VECT_TAB_OFFSET; /* Vector Table Relocation in Internal FLASH. */
 8003362:	4b03      	ldr	r3, [pc, #12]	; (8003370 <SystemInit+0x84>)
 8003364:	f04f 6200 	mov.w	r2, #134217728	; 0x8000000
 8003368:	609a      	str	r2, [r3, #8]
#endif  
}
 800336a:	bf00      	nop
 800336c:	bd80      	pop	{r7, pc}
 800336e:	bf00      	nop
 8003370:	e000ed00 	.word	0xe000ed00
 8003374:	40021000 	.word	0x40021000
 8003378:	f87fc00c 	.word	0xf87fc00c
 800337c:	ff00fccc 	.word	0xff00fccc

08003380 <SetSysClock>:
  *         is reset to the default reset state (done in SystemInit() function).             
  * @param  None
  * @retval None
  */
static void SetSysClock(void)
{
 8003380:	b480      	push	{r7}
 8003382:	af00      	add	r7, sp, #0
  /* At this stage the HSI is already enabled and used as System clock source */
  
  /* SYSCLK, HCLK, PCLK configuration ----------------------------------------*/

  /* Enable Prefetch Buffer and set Flash Latency */
  FLASH->ACR = FLASH_ACR_PRFTBE | (uint32_t)FLASH_ACR_LATENCY_1;
 8003384:	4b21      	ldr	r3, [pc, #132]	; (800340c <SetSysClock+0x8c>)
 8003386:	2212      	movs	r2, #18
 8003388:	601a      	str	r2, [r3, #0]

  /* HCLK = SYSCLK / 1 */
  RCC->CFGR |= (uint32_t)RCC_CFGR_HPRE_DIV1;
 800338a:	4b21      	ldr	r3, [pc, #132]	; (8003410 <SetSysClock+0x90>)
 800338c:	4a20      	ldr	r2, [pc, #128]	; (8003410 <SetSysClock+0x90>)
 800338e:	685b      	ldr	r3, [r3, #4]
 8003390:	6053      	str	r3, [r2, #4]

  /* PCLK2 = HCLK / 1 */
  RCC->CFGR |= (uint32_t)RCC_CFGR_PPRE2_DIV1;
 8003392:	4b1f      	ldr	r3, [pc, #124]	; (8003410 <SetSysClock+0x90>)
 8003394:	4a1e      	ldr	r2, [pc, #120]	; (8003410 <SetSysClock+0x90>)
 8003396:	685b      	ldr	r3, [r3, #4]
 8003398:	6053      	str	r3, [r2, #4]

  /* PCLK1 = HCLK / 2 */
  RCC->CFGR |= (uint32_t)RCC_CFGR_PPRE1_DIV2;
 800339a:	4b1d      	ldr	r3, [pc, #116]	; (8003410 <SetSysClock+0x90>)
 800339c:	685b      	ldr	r3, [r3, #4]
 800339e:	4a1c      	ldr	r2, [pc, #112]	; (8003410 <SetSysClock+0x90>)
 80033a0:	f443 6380 	orr.w	r3, r3, #1024	; 0x400
 80033a4:	6053      	str	r3, [r2, #4]

  /*  PLL configuration */
  RCC->CFGR &= (uint32_t)((uint32_t)~(RCC_CFGR_PLLSRC | RCC_CFGR_PLLXTPRE | RCC_CFGR_PLLMULL));
 80033a6:	4b1a      	ldr	r3, [pc, #104]	; (8003410 <SetSysClock+0x90>)
 80033a8:	685b      	ldr	r3, [r3, #4]
 80033aa:	4a19      	ldr	r2, [pc, #100]	; (8003410 <SetSysClock+0x90>)
 80033ac:	f423 137c 	bic.w	r3, r3, #4128768	; 0x3f0000
 80033b0:	6053      	str	r3, [r2, #4]
  RCC->CFGR |= (uint32_t)(RCC_CFGR_PLLSRC_HSI_Div2 | RCC_CFGR_PLLXTPRE_PREDIV1 | RCC_CFGR_PLLMULL16);
 80033b2:	4b17      	ldr	r3, [pc, #92]	; (8003410 <SetSysClock+0x90>)
 80033b4:	685b      	ldr	r3, [r3, #4]
 80033b6:	4a16      	ldr	r2, [pc, #88]	; (8003410 <SetSysClock+0x90>)
 80033b8:	f443 1360 	orr.w	r3, r3, #3670016	; 0x380000
 80033bc:	6053      	str	r3, [r2, #4]

  /* Enable PLL */
  RCC->CR |= RCC_CR_PLLON;
 80033be:	4b14      	ldr	r3, [pc, #80]	; (8003410 <SetSysClock+0x90>)
 80033c0:	681b      	ldr	r3, [r3, #0]
 80033c2:	4a13      	ldr	r2, [pc, #76]	; (8003410 <SetSysClock+0x90>)
 80033c4:	f043 7380 	orr.w	r3, r3, #16777216	; 0x1000000
 80033c8:	6013      	str	r3, [r2, #0]

  /* Wait till PLL is ready */
  while((RCC->CR & RCC_CR_PLLRDY) == 0)
 80033ca:	bf00      	nop
 80033cc:	4b10      	ldr	r3, [pc, #64]	; (8003410 <SetSysClock+0x90>)
 80033ce:	681b      	ldr	r3, [r3, #0]
 80033d0:	f003 7300 	and.w	r3, r3, #33554432	; 0x2000000
 80033d4:	2b00      	cmp	r3, #0
 80033d6:	d0f9      	beq.n	80033cc <SetSysClock+0x4c>
  {
  }

  /* Select PLL as system clock source */
  RCC->CFGR &= (uint32_t)((uint32_t)~(RCC_CFGR_SW));
 80033d8:	4b0d      	ldr	r3, [pc, #52]	; (8003410 <SetSysClock+0x90>)
 80033da:	685b      	ldr	r3, [r3, #4]
 80033dc:	4a0c      	ldr	r2, [pc, #48]	; (8003410 <SetSysClock+0x90>)
 80033de:	f023 0303 	bic.w	r3, r3, #3
 80033e2:	6053      	str	r3, [r2, #4]
  RCC->CFGR |= (uint32_t)RCC_CFGR_SW_PLL;
 80033e4:	4b0a      	ldr	r3, [pc, #40]	; (8003410 <SetSysClock+0x90>)
 80033e6:	685b      	ldr	r3, [r3, #4]
 80033e8:	4a09      	ldr	r2, [pc, #36]	; (8003410 <SetSysClock+0x90>)
 80033ea:	f043 0302 	orr.w	r3, r3, #2
 80033ee:	6053      	str	r3, [r2, #4]

  /* Wait till PLL is used as system clock source */
  while ((RCC->CFGR & (uint32_t)RCC_CFGR_SWS) != (uint32_t)RCC_CFGR_SWS_PLL)
 80033f0:	bf00      	nop
 80033f2:	4b07      	ldr	r3, [pc, #28]	; (8003410 <SetSysClock+0x90>)
 80033f4:	685b      	ldr	r3, [r3, #4]
 80033f6:	f003 030c 	and.w	r3, r3, #12
 80033fa:	2b08      	cmp	r3, #8
 80033fc:	d1f9      	bne.n	80033f2 <SetSysClock+0x72>
  {
  }
}
 80033fe:	bf00      	nop
 8003400:	bf00      	nop
 8003402:	46bd      	mov	sp, r7
 8003404:	f85d 7b04 	ldr.w	r7, [sp], #4
 8003408:	4770      	bx	lr
 800340a:	bf00      	nop
 800340c:	40022000 	.word	0x40022000
 8003410:	40021000 	.word	0x40021000

08003414 <NVIC_EnableIRQ>:
{
 8003414:	b480      	push	{r7}
 8003416:	b083      	sub	sp, #12
 8003418:	af00      	add	r7, sp, #0
 800341a:	4603      	mov	r3, r0
 800341c:	71fb      	strb	r3, [r7, #7]
  NVIC->ISER[(uint32_t)((int32_t)IRQn) >> 5] = (uint32_t)(1 << ((uint32_t)((int32_t)IRQn) & (uint32_t)0x1F)); /* enable interrupt */
 800341e:	79fb      	ldrb	r3, [r7, #7]
 8003420:	f003 031f 	and.w	r3, r3, #31
 8003424:	2201      	movs	r2, #1
 8003426:	fa02 f103 	lsl.w	r1, r2, r3
 800342a:	4a06      	ldr	r2, [pc, #24]	; (8003444 <NVIC_EnableIRQ+0x30>)
 800342c:	f997 3007 	ldrsb.w	r3, [r7, #7]
 8003430:	095b      	lsrs	r3, r3, #5
 8003432:	f842 1023 	str.w	r1, [r2, r3, lsl #2]
}
 8003436:	bf00      	nop
 8003438:	370c      	adds	r7, #12
 800343a:	46bd      	mov	sp, r7
 800343c:	f85d 7b04 	ldr.w	r7, [sp], #4
 8003440:	4770      	bx	lr
 8003442:	bf00      	nop
 8003444:	e000e100 	.word	0xe000e100

08003448 <NVIC_SetPriority>:

    \param [in]      IRQn  Number of the interrupt for set priority
    \param [in]  priority  Priority to set
 */
static __INLINE void NVIC_SetPriority(IRQn_Type IRQn, uint32_t priority)
{
 8003448:	b480      	push	{r7}
 800344a:	b083      	sub	sp, #12
 800344c:	af00      	add	r7, sp, #0
 800344e:	4603      	mov	r3, r0
 8003450:	6039      	str	r1, [r7, #0]
 8003452:	71fb      	strb	r3, [r7, #7]
  if(IRQn < 0) {
 8003454:	f997 3007 	ldrsb.w	r3, [r7, #7]
 8003458:	2b00      	cmp	r3, #0
 800345a:	da0b      	bge.n	8003474 <NVIC_SetPriority+0x2c>
    SCB->SHP[((uint32_t)(IRQn) & 0xF)-4] = ((priority << (8 - __NVIC_PRIO_BITS)) & 0xff); } /* set Priority for Cortex-M  System Interrupts */
 800345c:	683b      	ldr	r3, [r7, #0]
 800345e:	b2da      	uxtb	r2, r3
 8003460:	490c      	ldr	r1, [pc, #48]	; (8003494 <NVIC_SetPriority+0x4c>)
 8003462:	79fb      	ldrb	r3, [r7, #7]
 8003464:	f003 030f 	and.w	r3, r3, #15
 8003468:	3b04      	subs	r3, #4
 800346a:	0112      	lsls	r2, r2, #4
 800346c:	b2d2      	uxtb	r2, r2
 800346e:	440b      	add	r3, r1
 8003470:	761a      	strb	r2, [r3, #24]
  else {
    NVIC->IP[(uint32_t)(IRQn)] = ((priority << (8 - __NVIC_PRIO_BITS)) & 0xff);    }        /* set Priority for device specific Interrupts  */
}
 8003472:	e009      	b.n	8003488 <NVIC_SetPriority+0x40>
    NVIC->IP[(uint32_t)(IRQn)] = ((priority << (8 - __NVIC_PRIO_BITS)) & 0xff);    }        /* set Priority for device specific Interrupts  */
 8003474:	683b      	ldr	r3, [r7, #0]
 8003476:	b2da      	uxtb	r2, r3
 8003478:	4907      	ldr	r1, [pc, #28]	; (8003498 <NVIC_SetPriority+0x50>)
 800347a:	f997 3007 	ldrsb.w	r3, [r7, #7]
 800347e:	0112      	lsls	r2, r2, #4
 8003480:	b2d2      	uxtb	r2, r2
 8003482:	440b      	add	r3, r1
 8003484:	f883 2300 	strb.w	r2, [r3, #768]	; 0x300
}
 8003488:	bf00      	nop
 800348a:	370c      	adds	r7, #12
 800348c:	46bd      	mov	sp, r7
 800348e:	f85d 7b04 	ldr.w	r7, [sp], #4
 8003492:	4770      	bx	lr
 8003494:	e000ed00 	.word	0xe000ed00
 8003498:	e000e100 	.word	0xe000e100

0800349c <timer15_init>:
#include "timer.h"

volatile time_tracker system_time = {0, 0, 0, 0};
volatile uint8_t timer_flag;

void timer15_init(){
 800349c:	b580      	push	{r7, lr}
 800349e:	af00      	add	r7, sp, #0
	RCC->APB2ENR |= RCC_APB2Periph_TIM15; // Enable clock line to timer 15;
 80034a0:	4b16      	ldr	r3, [pc, #88]	; (80034fc <timer15_init+0x60>)
 80034a2:	699b      	ldr	r3, [r3, #24]
 80034a4:	4a15      	ldr	r2, [pc, #84]	; (80034fc <timer15_init+0x60>)
 80034a6:	f443 3380 	orr.w	r3, r3, #65536	; 0x10000
 80034aa:	6193      	str	r3, [r2, #24]
	TIM15->CR1 = 0x0000; // Configure timer 15
 80034ac:	4b14      	ldr	r3, [pc, #80]	; (8003500 <timer15_init+0x64>)
 80034ae:	2200      	movs	r2, #0
 80034b0:	801a      	strh	r2, [r3, #0]
	//Interrupt happens every 50 miliseconds
	TIM15->ARR = 0xFA00; // Set reload value 64000 decimal
 80034b2:	4b13      	ldr	r3, [pc, #76]	; (8003500 <timer15_init+0x64>)
 80034b4:	f44f 427a 	mov.w	r2, #64000	; 0xfa00
 80034b8:	62da      	str	r2, [r3, #44]	; 0x2c
	TIM15->PSC = 0x0031; // Set prescale value 49 decimal
 80034ba:	4b11      	ldr	r3, [pc, #68]	; (8003500 <timer15_init+0x64>)
 80034bc:	2231      	movs	r2, #49	; 0x31
 80034be:	851a      	strh	r2, [r3, #40]	; 0x28

	// --- ADD THIS LINE ---
	TIM15->EGR |= 0x0001; // Force an update to load PSC and ARR values
 80034c0:	4b0f      	ldr	r3, [pc, #60]	; (8003500 <timer15_init+0x64>)
 80034c2:	695b      	ldr	r3, [r3, #20]
 80034c4:	4a0e      	ldr	r2, [pc, #56]	; (8003500 <timer15_init+0x64>)
 80034c6:	f043 0301 	orr.w	r3, r3, #1
 80034ca:	6153      	str	r3, [r2, #20]
	TIM15->SR  &= ~0x0001; // The line above triggers a 'fake' interrupt flag; clear it!
 80034cc:	4b0c      	ldr	r3, [pc, #48]	; (8003500 <timer15_init+0x64>)
 80034ce:	691b      	ldr	r3, [r3, #16]
 80034d0:	4a0b      	ldr	r2, [pc, #44]	; (8003500 <timer15_init+0x64>)
 80034d2:	f023 0301 	bic.w	r3, r3, #1
 80034d6:	6113      	str	r3, [r2, #16]

	// Enable interrupt in timer and in NVIC
	TIM15->DIER |= 0x0001; // Enable timer 15 interrupts
 80034d8:	4b09      	ldr	r3, [pc, #36]	; (8003500 <timer15_init+0x64>)
 80034da:	68db      	ldr	r3, [r3, #12]
 80034dc:	4a08      	ldr	r2, [pc, #32]	; (8003500 <timer15_init+0x64>)
 80034de:	f043 0301 	orr.w	r3, r3, #1
 80034e2:	60d3      	str	r3, [r2, #12]
	NVIC_SetPriority(TIM1_BRK_TIM15_IRQn, 0x0); // Set interrupt priority
 80034e4:	2100      	movs	r1, #0
 80034e6:	2018      	movs	r0, #24
 80034e8:	f7ff ffae 	bl	8003448 <NVIC_SetPriority>
	NVIC_EnableIRQ(TIM1_BRK_TIM15_IRQn); // Enable interrupt
 80034ec:	2018      	movs	r0, #24
 80034ee:	f7ff ff91 	bl	8003414 <NVIC_EnableIRQ>
	TIM15->CR1 = 0x0001; // turn on timer
 80034f2:	4b03      	ldr	r3, [pc, #12]	; (8003500 <timer15_init+0x64>)
 80034f4:	2201      	movs	r2, #1
 80034f6:	801a      	strh	r2, [r3, #0]
}
 80034f8:	bf00      	nop
 80034fa:	bd80      	pop	{r7, pc}
 80034fc:	40021000 	.word	0x40021000
 8003500:	40014000 	.word	0x40014000

08003504 <TIM1_BRK_TIM15_IRQHandler>:



void TIM1_BRK_TIM15_IRQHandler(void) {
 8003504:	b480      	push	{r7}
 8003506:	af00      	add	r7, sp, #0
// 3. Update the values
	timer_flag = 1;
 8003508:	4b24      	ldr	r3, [pc, #144]	; (800359c <TIM1_BRK_TIM15_IRQHandler+0x98>)
 800350a:	2201      	movs	r2, #1
 800350c:	701a      	strb	r2, [r3, #0]

	system_time.hundredths++;
 800350e:	4b24      	ldr	r3, [pc, #144]	; (80035a0 <TIM1_BRK_TIM15_IRQHandler+0x9c>)
 8003510:	78db      	ldrb	r3, [r3, #3]
 8003512:	b2db      	uxtb	r3, r3
 8003514:	3301      	adds	r3, #1
 8003516:	b2da      	uxtb	r2, r3
 8003518:	4b21      	ldr	r3, [pc, #132]	; (80035a0 <TIM1_BRK_TIM15_IRQHandler+0x9c>)
 800351a:	70da      	strb	r2, [r3, #3]

if (system_time.hundredths >= 100) {
 800351c:	4b20      	ldr	r3, [pc, #128]	; (80035a0 <TIM1_BRK_TIM15_IRQHandler+0x9c>)
 800351e:	78db      	ldrb	r3, [r3, #3]
 8003520:	b2db      	uxtb	r3, r3
 8003522:	2b63      	cmp	r3, #99	; 0x63
 8003524:	d92f      	bls.n	8003586 <TIM1_BRK_TIM15_IRQHandler+0x82>
	system_time.hundredths = 0;
 8003526:	4b1e      	ldr	r3, [pc, #120]	; (80035a0 <TIM1_BRK_TIM15_IRQHandler+0x9c>)
 8003528:	2200      	movs	r2, #0
 800352a:	70da      	strb	r2, [r3, #3]
	system_time.seconds++;
 800352c:	4b1c      	ldr	r3, [pc, #112]	; (80035a0 <TIM1_BRK_TIM15_IRQHandler+0x9c>)
 800352e:	789b      	ldrb	r3, [r3, #2]
 8003530:	b2db      	uxtb	r3, r3
 8003532:	3301      	adds	r3, #1
 8003534:	b2da      	uxtb	r2, r3
 8003536:	4b1a      	ldr	r3, [pc, #104]	; (80035a0 <TIM1_BRK_TIM15_IRQHandler+0x9c>)
 8003538:	709a      	strb	r2, [r3, #2]

	if (system_time.seconds >= 60) {
 800353a:	4b19      	ldr	r3, [pc, #100]	; (80035a0 <TIM1_BRK_TIM15_IRQHandler+0x9c>)
 800353c:	789b      	ldrb	r3, [r3, #2]
 800353e:	b2db      	uxtb	r3, r3
 8003540:	2b3b      	cmp	r3, #59	; 0x3b
 8003542:	d920      	bls.n	8003586 <TIM1_BRK_TIM15_IRQHandler+0x82>
		system_time.seconds = 0;
 8003544:	4b16      	ldr	r3, [pc, #88]	; (80035a0 <TIM1_BRK_TIM15_IRQHandler+0x9c>)
 8003546:	2200      	movs	r2, #0
 8003548:	709a      	strb	r2, [r3, #2]
		system_time.minutes++;
 800354a:	4b15      	ldr	r3, [pc, #84]	; (80035a0 <TIM1_BRK_TIM15_IRQHandler+0x9c>)
 800354c:	785b      	ldrb	r3, [r3, #1]
 800354e:	b2db      	uxtb	r3, r3
 8003550:	3301      	adds	r3, #1
 8003552:	b2da      	uxtb	r2, r3
 8003554:	4b12      	ldr	r3, [pc, #72]	; (80035a0 <TIM1_BRK_TIM15_IRQHandler+0x9c>)
 8003556:	705a      	strb	r2, [r3, #1]

		if (system_time.minutes >= 60) {
 8003558:	4b11      	ldr	r3, [pc, #68]	; (80035a0 <TIM1_BRK_TIM15_IRQHandler+0x9c>)
 800355a:	785b      	ldrb	r3, [r3, #1]
 800355c:	b2db      	uxtb	r3, r3
 800355e:	2b3b      	cmp	r3, #59	; 0x3b
 8003560:	d911      	bls.n	8003586 <TIM1_BRK_TIM15_IRQHandler+0x82>
			system_time.minutes = 0;
 8003562:	4b0f      	ldr	r3, [pc, #60]	; (80035a0 <TIM1_BRK_TIM15_IRQHandler+0x9c>)
 8003564:	2200      	movs	r2, #0
 8003566:	705a      	strb	r2, [r3, #1]
			system_time.hours++;
 8003568:	4b0d      	ldr	r3, [pc, #52]	; (80035a0 <TIM1_BRK_TIM15_IRQHandler+0x9c>)
 800356a:	781b      	ldrb	r3, [r3, #0]
 800356c:	b2db      	uxtb	r3, r3
 800356e:	3301      	adds	r3, #1
 8003570:	b2da      	uxtb	r2, r3
 8003572:	4b0b      	ldr	r3, [pc, #44]	; (80035a0 <TIM1_BRK_TIM15_IRQHandler+0x9c>)
 8003574:	701a      	strb	r2, [r3, #0]

			if (system_time.hours >= 24) {
 8003576:	4b0a      	ldr	r3, [pc, #40]	; (80035a0 <TIM1_BRK_TIM15_IRQHandler+0x9c>)
 8003578:	781b      	ldrb	r3, [r3, #0]
 800357a:	b2db      	uxtb	r3, r3
 800357c:	2b17      	cmp	r3, #23
 800357e:	d902      	bls.n	8003586 <TIM1_BRK_TIM15_IRQHandler+0x82>
				system_time.hours = 0; // Reset at midnight
 8003580:	4b07      	ldr	r3, [pc, #28]	; (80035a0 <TIM1_BRK_TIM15_IRQHandler+0x9c>)
 8003582:	2200      	movs	r2, #0
 8003584:	701a      	strb	r2, [r3, #0]
			}
		}
	}
}
TIM15->SR &= ~0x0001; // Clear interrupt bit
 8003586:	4b07      	ldr	r3, [pc, #28]	; (80035a4 <TIM1_BRK_TIM15_IRQHandler+0xa0>)
 8003588:	691b      	ldr	r3, [r3, #16]
 800358a:	4a06      	ldr	r2, [pc, #24]	; (80035a4 <TIM1_BRK_TIM15_IRQHandler+0xa0>)
 800358c:	f023 0301 	bic.w	r3, r3, #1
 8003590:	6113      	str	r3, [r2, #16]
}
 8003592:	bf00      	nop
 8003594:	46bd      	mov	sp, r7
 8003596:	f85d 7b04 	ldr.w	r7, [sp], #4
 800359a:	4770      	bx	lr
 800359c:	20000618 	.word	0x20000618
 80035a0:	2000060c 	.word	0x2000060c
 80035a4:	40014000 	.word	0x40014000

080035a8 <Reset_Handler>:

  .section .text.Reset_Handler
  .weak Reset_Handler
  .type Reset_Handler, %function
Reset_Handler:
  ldr   r0, =_estack
 80035a8:	480d      	ldr	r0, [pc, #52]	; (80035e0 <LoopForever+0x2>)
  mov   sp, r0          /* set stack pointer */
 80035aa:	4685      	mov	sp, r0

/* Copy the data segment initializers from flash to SRAM */
  ldr r0, =_sdata
 80035ac:	480d      	ldr	r0, [pc, #52]	; (80035e4 <LoopForever+0x6>)
  ldr r1, =_edata
 80035ae:	490e      	ldr	r1, [pc, #56]	; (80035e8 <LoopForever+0xa>)
  ldr r2, =_sidata
 80035b0:	4a0e      	ldr	r2, [pc, #56]	; (80035ec <LoopForever+0xe>)
  movs r3, #0
 80035b2:	2300      	movs	r3, #0
  b LoopCopyDataInit
 80035b4:	e002      	b.n	80035bc <LoopCopyDataInit>

080035b6 <CopyDataInit>:

CopyDataInit:
  ldr r4, [r2, r3]
 80035b6:	58d4      	ldr	r4, [r2, r3]
  str r4, [r0, r3]
 80035b8:	50c4      	str	r4, [r0, r3]
  adds r3, r3, #4
 80035ba:	3304      	adds	r3, #4

080035bc <LoopCopyDataInit>:

LoopCopyDataInit:
  adds r4, r0, r3
 80035bc:	18c4      	adds	r4, r0, r3
  cmp r4, r1
 80035be:	428c      	cmp	r4, r1
  bcc CopyDataInit
 80035c0:	d3f9      	bcc.n	80035b6 <CopyDataInit>

/* Zero fill the bss segment. */
  ldr r2, =_sbss
 80035c2:	4a0b      	ldr	r2, [pc, #44]	; (80035f0 <LoopForever+0x12>)
  ldr r4, =_ebss
 80035c4:	4c0b      	ldr	r4, [pc, #44]	; (80035f4 <LoopForever+0x16>)
  movs r3, #0
 80035c6:	2300      	movs	r3, #0
  b LoopFillZerobss
 80035c8:	e001      	b.n	80035ce <LoopFillZerobss>

080035ca <FillZerobss>:

FillZerobss:
  str  r3, [r2]
 80035ca:	6013      	str	r3, [r2, #0]
  adds r2, r2, #4
 80035cc:	3204      	adds	r2, #4

080035ce <LoopFillZerobss>:

LoopFillZerobss:
  cmp r2, r4
 80035ce:	42a2      	cmp	r2, r4
  bcc FillZerobss
 80035d0:	d3fb      	bcc.n	80035ca <FillZerobss>

/* Call the clock system intitialization function.*/
  bl  SystemInit
 80035d2:	f7ff fe8b 	bl	80032ec <SystemInit>
/* Call static constructors */
  bl __libc_init_array
 80035d6:	f000 f817 	bl	8003608 <__libc_init_array>
/* Call the application's entry point.*/
  bl main
 80035da:	f7ff f913 	bl	8002804 <main>

080035de <LoopForever>:

LoopForever:
    b LoopForever
 80035de:	e7fe      	b.n	80035de <LoopForever>
  ldr   r0, =_estack
 80035e0:	20004000 	.word	0x20004000
  ldr r0, =_sdata
 80035e4:	20000000 	.word	0x20000000
  ldr r1, =_edata
 80035e8:	200000c0 	.word	0x200000c0
  ldr r2, =_sidata
 80035ec:	080055cc 	.word	0x080055cc
  ldr r2, =_sbss
 80035f0:	200000c0 	.word	0x200000c0
  ldr r4, =_ebss
 80035f4:	20000628 	.word	0x20000628

080035f8 <ADC1_2_IRQHandler>:
 * @retval : None
*/
  .section .text.Default_Handler,"ax",%progbits
Default_Handler:
Infinite_Loop:
  b Infinite_Loop
 80035f8:	e7fe      	b.n	80035f8 <ADC1_2_IRQHandler>
	...

080035fc <__errno>:
 80035fc:	4b01      	ldr	r3, [pc, #4]	; (8003604 <__errno+0x8>)
 80035fe:	6818      	ldr	r0, [r3, #0]
 8003600:	4770      	bx	lr
 8003602:	bf00      	nop
 8003604:	2000005c 	.word	0x2000005c

08003608 <__libc_init_array>:
 8003608:	b570      	push	{r4, r5, r6, lr}
 800360a:	4d0d      	ldr	r5, [pc, #52]	; (8003640 <__libc_init_array+0x38>)
 800360c:	4c0d      	ldr	r4, [pc, #52]	; (8003644 <__libc_init_array+0x3c>)
 800360e:	1b64      	subs	r4, r4, r5
 8003610:	10a4      	asrs	r4, r4, #2
 8003612:	2600      	movs	r6, #0
 8003614:	42a6      	cmp	r6, r4
 8003616:	d109      	bne.n	800362c <__libc_init_array+0x24>
 8003618:	4d0b      	ldr	r5, [pc, #44]	; (8003648 <__libc_init_array+0x40>)
 800361a:	4c0c      	ldr	r4, [pc, #48]	; (800364c <__libc_init_array+0x44>)
 800361c:	f001 fb9a 	bl	8004d54 <_init>
 8003620:	1b64      	subs	r4, r4, r5
 8003622:	10a4      	asrs	r4, r4, #2
 8003624:	2600      	movs	r6, #0
 8003626:	42a6      	cmp	r6, r4
 8003628:	d105      	bne.n	8003636 <__libc_init_array+0x2e>
 800362a:	bd70      	pop	{r4, r5, r6, pc}
 800362c:	f855 3b04 	ldr.w	r3, [r5], #4
 8003630:	4798      	blx	r3
 8003632:	3601      	adds	r6, #1
 8003634:	e7ee      	b.n	8003614 <__libc_init_array+0xc>
 8003636:	f855 3b04 	ldr.w	r3, [r5], #4
 800363a:	4798      	blx	r3
 800363c:	3601      	adds	r6, #1
 800363e:	e7f2      	b.n	8003626 <__libc_init_array+0x1e>
 8003640:	080055c4 	.word	0x080055c4
 8003644:	080055c4 	.word	0x080055c4
 8003648:	080055c4 	.word	0x080055c4
 800364c:	080055c8 	.word	0x080055c8

08003650 <memset>:
 8003650:	4402      	add	r2, r0
 8003652:	4603      	mov	r3, r0
 8003654:	4293      	cmp	r3, r2
 8003656:	d100      	bne.n	800365a <memset+0xa>
 8003658:	4770      	bx	lr
 800365a:	f803 1b01 	strb.w	r1, [r3], #1
 800365e:	e7f9      	b.n	8003654 <memset+0x4>

08003660 <iprintf>:
 8003660:	b40f      	push	{r0, r1, r2, r3}
 8003662:	4b0a      	ldr	r3, [pc, #40]	; (800368c <iprintf+0x2c>)
 8003664:	b513      	push	{r0, r1, r4, lr}
 8003666:	681c      	ldr	r4, [r3, #0]
 8003668:	b124      	cbz	r4, 8003674 <iprintf+0x14>
 800366a:	69a3      	ldr	r3, [r4, #24]
 800366c:	b913      	cbnz	r3, 8003674 <iprintf+0x14>
 800366e:	4620      	mov	r0, r4
 8003670:	f000 fbc0 	bl	8003df4 <__sinit>
 8003674:	ab05      	add	r3, sp, #20
 8003676:	9a04      	ldr	r2, [sp, #16]
 8003678:	68a1      	ldr	r1, [r4, #8]
 800367a:	9301      	str	r3, [sp, #4]
 800367c:	4620      	mov	r0, r4
 800367e:	f000 ff07 	bl	8004490 <_vfiprintf_r>
 8003682:	b002      	add	sp, #8
 8003684:	e8bd 4010 	ldmia.w	sp!, {r4, lr}
 8003688:	b004      	add	sp, #16
 800368a:	4770      	bx	lr
 800368c:	2000005c 	.word	0x2000005c

08003690 <putchar>:
 8003690:	4b09      	ldr	r3, [pc, #36]	; (80036b8 <putchar+0x28>)
 8003692:	b513      	push	{r0, r1, r4, lr}
 8003694:	681c      	ldr	r4, [r3, #0]
 8003696:	4601      	mov	r1, r0
 8003698:	b134      	cbz	r4, 80036a8 <putchar+0x18>
 800369a:	69a3      	ldr	r3, [r4, #24]
 800369c:	b923      	cbnz	r3, 80036a8 <putchar+0x18>
 800369e:	9001      	str	r0, [sp, #4]
 80036a0:	4620      	mov	r0, r4
 80036a2:	f000 fba7 	bl	8003df4 <__sinit>
 80036a6:	9901      	ldr	r1, [sp, #4]
 80036a8:	68a2      	ldr	r2, [r4, #8]
 80036aa:	4620      	mov	r0, r4
 80036ac:	b002      	add	sp, #8
 80036ae:	e8bd 4010 	ldmia.w	sp!, {r4, lr}
 80036b2:	f001 b9b1 	b.w	8004a18 <_putc_r>
 80036b6:	bf00      	nop
 80036b8:	2000005c 	.word	0x2000005c

080036bc <_puts_r>:
 80036bc:	b570      	push	{r4, r5, r6, lr}
 80036be:	460e      	mov	r6, r1
 80036c0:	4605      	mov	r5, r0
 80036c2:	b118      	cbz	r0, 80036cc <_puts_r+0x10>
 80036c4:	6983      	ldr	r3, [r0, #24]
 80036c6:	b90b      	cbnz	r3, 80036cc <_puts_r+0x10>
 80036c8:	f000 fb94 	bl	8003df4 <__sinit>
 80036cc:	69ab      	ldr	r3, [r5, #24]
 80036ce:	68ac      	ldr	r4, [r5, #8]
 80036d0:	b913      	cbnz	r3, 80036d8 <_puts_r+0x1c>
 80036d2:	4628      	mov	r0, r5
 80036d4:	f000 fb8e 	bl	8003df4 <__sinit>
 80036d8:	4b2c      	ldr	r3, [pc, #176]	; (800378c <_puts_r+0xd0>)
 80036da:	429c      	cmp	r4, r3
 80036dc:	d120      	bne.n	8003720 <_puts_r+0x64>
 80036de:	686c      	ldr	r4, [r5, #4]
 80036e0:	6e63      	ldr	r3, [r4, #100]	; 0x64
 80036e2:	07db      	lsls	r3, r3, #31
 80036e4:	d405      	bmi.n	80036f2 <_puts_r+0x36>
 80036e6:	89a3      	ldrh	r3, [r4, #12]
 80036e8:	0598      	lsls	r0, r3, #22
 80036ea:	d402      	bmi.n	80036f2 <_puts_r+0x36>
 80036ec:	6da0      	ldr	r0, [r4, #88]	; 0x58
 80036ee:	f000 fc31 	bl	8003f54 <__retarget_lock_acquire_recursive>
 80036f2:	89a3      	ldrh	r3, [r4, #12]
 80036f4:	0719      	lsls	r1, r3, #28
 80036f6:	d51d      	bpl.n	8003734 <_puts_r+0x78>
 80036f8:	6923      	ldr	r3, [r4, #16]
 80036fa:	b1db      	cbz	r3, 8003734 <_puts_r+0x78>
 80036fc:	3e01      	subs	r6, #1
 80036fe:	68a3      	ldr	r3, [r4, #8]
 8003700:	f816 1f01 	ldrb.w	r1, [r6, #1]!
 8003704:	3b01      	subs	r3, #1
 8003706:	60a3      	str	r3, [r4, #8]
 8003708:	bb39      	cbnz	r1, 800375a <_puts_r+0x9e>
 800370a:	2b00      	cmp	r3, #0
 800370c:	da38      	bge.n	8003780 <_puts_r+0xc4>
 800370e:	4622      	mov	r2, r4
 8003710:	210a      	movs	r1, #10
 8003712:	4628      	mov	r0, r5
 8003714:	f000 f976 	bl	8003a04 <__swbuf_r>
 8003718:	3001      	adds	r0, #1
 800371a:	d011      	beq.n	8003740 <_puts_r+0x84>
 800371c:	250a      	movs	r5, #10
 800371e:	e011      	b.n	8003744 <_puts_r+0x88>
 8003720:	4b1b      	ldr	r3, [pc, #108]	; (8003790 <_puts_r+0xd4>)
 8003722:	429c      	cmp	r4, r3
 8003724:	d101      	bne.n	800372a <_puts_r+0x6e>
 8003726:	68ac      	ldr	r4, [r5, #8]
 8003728:	e7da      	b.n	80036e0 <_puts_r+0x24>
 800372a:	4b1a      	ldr	r3, [pc, #104]	; (8003794 <_puts_r+0xd8>)
 800372c:	429c      	cmp	r4, r3
 800372e:	bf08      	it	eq
 8003730:	68ec      	ldreq	r4, [r5, #12]
 8003732:	e7d5      	b.n	80036e0 <_puts_r+0x24>
 8003734:	4621      	mov	r1, r4
 8003736:	4628      	mov	r0, r5
 8003738:	f000 f9b6 	bl	8003aa8 <__swsetup_r>
 800373c:	2800      	cmp	r0, #0
 800373e:	d0dd      	beq.n	80036fc <_puts_r+0x40>
 8003740:	f04f 35ff 	mov.w	r5, #4294967295
 8003744:	6e63      	ldr	r3, [r4, #100]	; 0x64
 8003746:	07da      	lsls	r2, r3, #31
 8003748:	d405      	bmi.n	8003756 <_puts_r+0x9a>
 800374a:	89a3      	ldrh	r3, [r4, #12]
 800374c:	059b      	lsls	r3, r3, #22
 800374e:	d402      	bmi.n	8003756 <_puts_r+0x9a>
 8003750:	6da0      	ldr	r0, [r4, #88]	; 0x58
 8003752:	f000 fc00 	bl	8003f56 <__retarget_lock_release_recursive>
 8003756:	4628      	mov	r0, r5
 8003758:	bd70      	pop	{r4, r5, r6, pc}
 800375a:	2b00      	cmp	r3, #0
 800375c:	da04      	bge.n	8003768 <_puts_r+0xac>
 800375e:	69a2      	ldr	r2, [r4, #24]
 8003760:	429a      	cmp	r2, r3
 8003762:	dc06      	bgt.n	8003772 <_puts_r+0xb6>
 8003764:	290a      	cmp	r1, #10
 8003766:	d004      	beq.n	8003772 <_puts_r+0xb6>
 8003768:	6823      	ldr	r3, [r4, #0]
 800376a:	1c5a      	adds	r2, r3, #1
 800376c:	6022      	str	r2, [r4, #0]
 800376e:	7019      	strb	r1, [r3, #0]
 8003770:	e7c5      	b.n	80036fe <_puts_r+0x42>
 8003772:	4622      	mov	r2, r4
 8003774:	4628      	mov	r0, r5
 8003776:	f000 f945 	bl	8003a04 <__swbuf_r>
 800377a:	3001      	adds	r0, #1
 800377c:	d1bf      	bne.n	80036fe <_puts_r+0x42>
 800377e:	e7df      	b.n	8003740 <_puts_r+0x84>
 8003780:	6823      	ldr	r3, [r4, #0]
 8003782:	250a      	movs	r5, #10
 8003784:	1c5a      	adds	r2, r3, #1
 8003786:	6022      	str	r2, [r4, #0]
 8003788:	701d      	strb	r5, [r3, #0]
 800378a:	e7db      	b.n	8003744 <_puts_r+0x88>
 800378c:	08005550 	.word	0x08005550
 8003790:	08005570 	.word	0x08005570
 8003794:	08005530 	.word	0x08005530

08003798 <puts>:
 8003798:	4b02      	ldr	r3, [pc, #8]	; (80037a4 <puts+0xc>)
 800379a:	4601      	mov	r1, r0
 800379c:	6818      	ldr	r0, [r3, #0]
 800379e:	f7ff bf8d 	b.w	80036bc <_puts_r>
 80037a2:	bf00      	nop
 80037a4:	2000005c 	.word	0x2000005c

080037a8 <rand>:
 80037a8:	4b17      	ldr	r3, [pc, #92]	; (8003808 <rand+0x60>)
 80037aa:	b510      	push	{r4, lr}
 80037ac:	681c      	ldr	r4, [r3, #0]
 80037ae:	6ba3      	ldr	r3, [r4, #56]	; 0x38
 80037b0:	b9b3      	cbnz	r3, 80037e0 <rand+0x38>
 80037b2:	2018      	movs	r0, #24
 80037b4:	f000 fc34 	bl	8004020 <malloc>
 80037b8:	63a0      	str	r0, [r4, #56]	; 0x38
 80037ba:	b928      	cbnz	r0, 80037c8 <rand+0x20>
 80037bc:	4602      	mov	r2, r0
 80037be:	4b13      	ldr	r3, [pc, #76]	; (800380c <rand+0x64>)
 80037c0:	4813      	ldr	r0, [pc, #76]	; (8003810 <rand+0x68>)
 80037c2:	214e      	movs	r1, #78	; 0x4e
 80037c4:	f000 f9de 	bl	8003b84 <__assert_func>
 80037c8:	4a12      	ldr	r2, [pc, #72]	; (8003814 <rand+0x6c>)
 80037ca:	4b13      	ldr	r3, [pc, #76]	; (8003818 <rand+0x70>)
 80037cc:	e9c0 2300 	strd	r2, r3, [r0]
 80037d0:	4b12      	ldr	r3, [pc, #72]	; (800381c <rand+0x74>)
 80037d2:	6083      	str	r3, [r0, #8]
 80037d4:	230b      	movs	r3, #11
 80037d6:	8183      	strh	r3, [r0, #12]
 80037d8:	2201      	movs	r2, #1
 80037da:	2300      	movs	r3, #0
 80037dc:	e9c0 2304 	strd	r2, r3, [r0, #16]
 80037e0:	6ba1      	ldr	r1, [r4, #56]	; 0x38
 80037e2:	480f      	ldr	r0, [pc, #60]	; (8003820 <rand+0x78>)
 80037e4:	690a      	ldr	r2, [r1, #16]
 80037e6:	694b      	ldr	r3, [r1, #20]
 80037e8:	4c0e      	ldr	r4, [pc, #56]	; (8003824 <rand+0x7c>)
 80037ea:	4350      	muls	r0, r2
 80037ec:	fb04 0003 	mla	r0, r4, r3, r0
 80037f0:	fba2 3404 	umull	r3, r4, r2, r4
 80037f4:	1c5a      	adds	r2, r3, #1
 80037f6:	4404      	add	r4, r0
 80037f8:	f144 0000 	adc.w	r0, r4, #0
 80037fc:	e9c1 2004 	strd	r2, r0, [r1, #16]
 8003800:	f020 4000 	bic.w	r0, r0, #2147483648	; 0x80000000
 8003804:	bd10      	pop	{r4, pc}
 8003806:	bf00      	nop
 8003808:	2000005c 	.word	0x2000005c
 800380c:	0800547c 	.word	0x0800547c
 8003810:	08005493 	.word	0x08005493
 8003814:	abcd330e 	.word	0xabcd330e
 8003818:	e66d1234 	.word	0xe66d1234
 800381c:	0005deec 	.word	0x0005deec
 8003820:	5851f42d 	.word	0x5851f42d
 8003824:	4c957f2d 	.word	0x4c957f2d

08003828 <setbuf>:
 8003828:	2900      	cmp	r1, #0
 800382a:	f44f 6380 	mov.w	r3, #1024	; 0x400
 800382e:	bf0c      	ite	eq
 8003830:	2202      	moveq	r2, #2
 8003832:	2200      	movne	r2, #0
 8003834:	f000 b800 	b.w	8003838 <setvbuf>

08003838 <setvbuf>:
 8003838:	e92d 43f7 	stmdb	sp!, {r0, r1, r2, r4, r5, r6, r7, r8, r9, lr}
 800383c:	461d      	mov	r5, r3
 800383e:	4b5d      	ldr	r3, [pc, #372]	; (80039b4 <setvbuf+0x17c>)
 8003840:	681f      	ldr	r7, [r3, #0]
 8003842:	4604      	mov	r4, r0
 8003844:	460e      	mov	r6, r1
 8003846:	4690      	mov	r8, r2
 8003848:	b127      	cbz	r7, 8003854 <setvbuf+0x1c>
 800384a:	69bb      	ldr	r3, [r7, #24]
 800384c:	b913      	cbnz	r3, 8003854 <setvbuf+0x1c>
 800384e:	4638      	mov	r0, r7
 8003850:	f000 fad0 	bl	8003df4 <__sinit>
 8003854:	4b58      	ldr	r3, [pc, #352]	; (80039b8 <setvbuf+0x180>)
 8003856:	429c      	cmp	r4, r3
 8003858:	d167      	bne.n	800392a <setvbuf+0xf2>
 800385a:	687c      	ldr	r4, [r7, #4]
 800385c:	f1b8 0f02 	cmp.w	r8, #2
 8003860:	d006      	beq.n	8003870 <setvbuf+0x38>
 8003862:	f1b8 0f01 	cmp.w	r8, #1
 8003866:	f200 809f 	bhi.w	80039a8 <setvbuf+0x170>
 800386a:	2d00      	cmp	r5, #0
 800386c:	f2c0 809c 	blt.w	80039a8 <setvbuf+0x170>
 8003870:	6e63      	ldr	r3, [r4, #100]	; 0x64
 8003872:	07db      	lsls	r3, r3, #31
 8003874:	d405      	bmi.n	8003882 <setvbuf+0x4a>
 8003876:	89a3      	ldrh	r3, [r4, #12]
 8003878:	0598      	lsls	r0, r3, #22
 800387a:	d402      	bmi.n	8003882 <setvbuf+0x4a>
 800387c:	6da0      	ldr	r0, [r4, #88]	; 0x58
 800387e:	f000 fb69 	bl	8003f54 <__retarget_lock_acquire_recursive>
 8003882:	4621      	mov	r1, r4
 8003884:	4638      	mov	r0, r7
 8003886:	f000 fa21 	bl	8003ccc <_fflush_r>
 800388a:	6b61      	ldr	r1, [r4, #52]	; 0x34
 800388c:	b141      	cbz	r1, 80038a0 <setvbuf+0x68>
 800388e:	f104 0344 	add.w	r3, r4, #68	; 0x44
 8003892:	4299      	cmp	r1, r3
 8003894:	d002      	beq.n	800389c <setvbuf+0x64>
 8003896:	4638      	mov	r0, r7
 8003898:	f000 fbca 	bl	8004030 <_free_r>
 800389c:	2300      	movs	r3, #0
 800389e:	6363      	str	r3, [r4, #52]	; 0x34
 80038a0:	2300      	movs	r3, #0
 80038a2:	61a3      	str	r3, [r4, #24]
 80038a4:	6063      	str	r3, [r4, #4]
 80038a6:	89a3      	ldrh	r3, [r4, #12]
 80038a8:	0619      	lsls	r1, r3, #24
 80038aa:	d503      	bpl.n	80038b4 <setvbuf+0x7c>
 80038ac:	6921      	ldr	r1, [r4, #16]
 80038ae:	4638      	mov	r0, r7
 80038b0:	f000 fbbe 	bl	8004030 <_free_r>
 80038b4:	89a3      	ldrh	r3, [r4, #12]
 80038b6:	f423 634a 	bic.w	r3, r3, #3232	; 0xca0
 80038ba:	f023 0303 	bic.w	r3, r3, #3
 80038be:	f1b8 0f02 	cmp.w	r8, #2
 80038c2:	81a3      	strh	r3, [r4, #12]
 80038c4:	d06c      	beq.n	80039a0 <setvbuf+0x168>
 80038c6:	ab01      	add	r3, sp, #4
 80038c8:	466a      	mov	r2, sp
 80038ca:	4621      	mov	r1, r4
 80038cc:	4638      	mov	r0, r7
 80038ce:	f000 fb43 	bl	8003f58 <__swhatbuf_r>
 80038d2:	89a3      	ldrh	r3, [r4, #12]
 80038d4:	4318      	orrs	r0, r3
 80038d6:	81a0      	strh	r0, [r4, #12]
 80038d8:	2d00      	cmp	r5, #0
 80038da:	d130      	bne.n	800393e <setvbuf+0x106>
 80038dc:	9d00      	ldr	r5, [sp, #0]
 80038de:	4628      	mov	r0, r5
 80038e0:	f000 fb9e 	bl	8004020 <malloc>
 80038e4:	4606      	mov	r6, r0
 80038e6:	2800      	cmp	r0, #0
 80038e8:	d155      	bne.n	8003996 <setvbuf+0x15e>
 80038ea:	f8dd 9000 	ldr.w	r9, [sp]
 80038ee:	45a9      	cmp	r9, r5
 80038f0:	d14a      	bne.n	8003988 <setvbuf+0x150>
 80038f2:	f04f 35ff 	mov.w	r5, #4294967295
 80038f6:	2200      	movs	r2, #0
 80038f8:	60a2      	str	r2, [r4, #8]
 80038fa:	f104 0247 	add.w	r2, r4, #71	; 0x47
 80038fe:	6022      	str	r2, [r4, #0]
 8003900:	6122      	str	r2, [r4, #16]
 8003902:	2201      	movs	r2, #1
 8003904:	f9b4 300c 	ldrsh.w	r3, [r4, #12]
 8003908:	6162      	str	r2, [r4, #20]
 800390a:	6e62      	ldr	r2, [r4, #100]	; 0x64
 800390c:	f043 0302 	orr.w	r3, r3, #2
 8003910:	07d2      	lsls	r2, r2, #31
 8003912:	81a3      	strh	r3, [r4, #12]
 8003914:	d405      	bmi.n	8003922 <setvbuf+0xea>
 8003916:	f413 7f00 	tst.w	r3, #512	; 0x200
 800391a:	d102      	bne.n	8003922 <setvbuf+0xea>
 800391c:	6da0      	ldr	r0, [r4, #88]	; 0x58
 800391e:	f000 fb1a 	bl	8003f56 <__retarget_lock_release_recursive>
 8003922:	4628      	mov	r0, r5
 8003924:	b003      	add	sp, #12
 8003926:	e8bd 83f0 	ldmia.w	sp!, {r4, r5, r6, r7, r8, r9, pc}
 800392a:	4b24      	ldr	r3, [pc, #144]	; (80039bc <setvbuf+0x184>)
 800392c:	429c      	cmp	r4, r3
 800392e:	d101      	bne.n	8003934 <setvbuf+0xfc>
 8003930:	68bc      	ldr	r4, [r7, #8]
 8003932:	e793      	b.n	800385c <setvbuf+0x24>
 8003934:	4b22      	ldr	r3, [pc, #136]	; (80039c0 <setvbuf+0x188>)
 8003936:	429c      	cmp	r4, r3
 8003938:	bf08      	it	eq
 800393a:	68fc      	ldreq	r4, [r7, #12]
 800393c:	e78e      	b.n	800385c <setvbuf+0x24>
 800393e:	2e00      	cmp	r6, #0
 8003940:	d0cd      	beq.n	80038de <setvbuf+0xa6>
 8003942:	69bb      	ldr	r3, [r7, #24]
 8003944:	b913      	cbnz	r3, 800394c <setvbuf+0x114>
 8003946:	4638      	mov	r0, r7
 8003948:	f000 fa54 	bl	8003df4 <__sinit>
 800394c:	f1b8 0f01 	cmp.w	r8, #1
 8003950:	bf08      	it	eq
 8003952:	89a3      	ldrheq	r3, [r4, #12]
 8003954:	6026      	str	r6, [r4, #0]
 8003956:	bf04      	itt	eq
 8003958:	f043 0301 	orreq.w	r3, r3, #1
 800395c:	81a3      	strheq	r3, [r4, #12]
 800395e:	89a2      	ldrh	r2, [r4, #12]
 8003960:	f012 0308 	ands.w	r3, r2, #8
 8003964:	e9c4 6504 	strd	r6, r5, [r4, #16]
 8003968:	d01c      	beq.n	80039a4 <setvbuf+0x16c>
 800396a:	07d3      	lsls	r3, r2, #31
 800396c:	bf41      	itttt	mi
 800396e:	2300      	movmi	r3, #0
 8003970:	426d      	negmi	r5, r5
 8003972:	60a3      	strmi	r3, [r4, #8]
 8003974:	61a5      	strmi	r5, [r4, #24]
 8003976:	bf58      	it	pl
 8003978:	60a5      	strpl	r5, [r4, #8]
 800397a:	6e65      	ldr	r5, [r4, #100]	; 0x64
 800397c:	f015 0501 	ands.w	r5, r5, #1
 8003980:	d115      	bne.n	80039ae <setvbuf+0x176>
 8003982:	f412 7f00 	tst.w	r2, #512	; 0x200
 8003986:	e7c8      	b.n	800391a <setvbuf+0xe2>
 8003988:	4648      	mov	r0, r9
 800398a:	f000 fb49 	bl	8004020 <malloc>
 800398e:	4606      	mov	r6, r0
 8003990:	2800      	cmp	r0, #0
 8003992:	d0ae      	beq.n	80038f2 <setvbuf+0xba>
 8003994:	464d      	mov	r5, r9
 8003996:	89a3      	ldrh	r3, [r4, #12]
 8003998:	f043 0380 	orr.w	r3, r3, #128	; 0x80
 800399c:	81a3      	strh	r3, [r4, #12]
 800399e:	e7d0      	b.n	8003942 <setvbuf+0x10a>
 80039a0:	2500      	movs	r5, #0
 80039a2:	e7a8      	b.n	80038f6 <setvbuf+0xbe>
 80039a4:	60a3      	str	r3, [r4, #8]
 80039a6:	e7e8      	b.n	800397a <setvbuf+0x142>
 80039a8:	f04f 35ff 	mov.w	r5, #4294967295
 80039ac:	e7b9      	b.n	8003922 <setvbuf+0xea>
 80039ae:	2500      	movs	r5, #0
 80039b0:	e7b7      	b.n	8003922 <setvbuf+0xea>
 80039b2:	bf00      	nop
 80039b4:	2000005c 	.word	0x2000005c
 80039b8:	08005550 	.word	0x08005550
 80039bc:	08005570 	.word	0x08005570
 80039c0:	08005530 	.word	0x08005530

080039c4 <siprintf>:
 80039c4:	b40e      	push	{r1, r2, r3}
 80039c6:	b500      	push	{lr}
 80039c8:	b09c      	sub	sp, #112	; 0x70
 80039ca:	ab1d      	add	r3, sp, #116	; 0x74
 80039cc:	9002      	str	r0, [sp, #8]
 80039ce:	9006      	str	r0, [sp, #24]
 80039d0:	f06f 4100 	mvn.w	r1, #2147483648	; 0x80000000
 80039d4:	4809      	ldr	r0, [pc, #36]	; (80039fc <siprintf+0x38>)
 80039d6:	9107      	str	r1, [sp, #28]
 80039d8:	9104      	str	r1, [sp, #16]
 80039da:	4909      	ldr	r1, [pc, #36]	; (8003a00 <siprintf+0x3c>)
 80039dc:	f853 2b04 	ldr.w	r2, [r3], #4
 80039e0:	9105      	str	r1, [sp, #20]
 80039e2:	6800      	ldr	r0, [r0, #0]
 80039e4:	9301      	str	r3, [sp, #4]
 80039e6:	a902      	add	r1, sp, #8
 80039e8:	f000 fc28 	bl	800423c <_svfiprintf_r>
 80039ec:	9b02      	ldr	r3, [sp, #8]
 80039ee:	2200      	movs	r2, #0
 80039f0:	701a      	strb	r2, [r3, #0]
 80039f2:	b01c      	add	sp, #112	; 0x70
 80039f4:	f85d eb04 	ldr.w	lr, [sp], #4
 80039f8:	b003      	add	sp, #12
 80039fa:	4770      	bx	lr
 80039fc:	2000005c 	.word	0x2000005c
 8003a00:	ffff0208 	.word	0xffff0208

08003a04 <__swbuf_r>:
 8003a04:	b5f8      	push	{r3, r4, r5, r6, r7, lr}
 8003a06:	460e      	mov	r6, r1
 8003a08:	4614      	mov	r4, r2
 8003a0a:	4605      	mov	r5, r0
 8003a0c:	b118      	cbz	r0, 8003a16 <__swbuf_r+0x12>
 8003a0e:	6983      	ldr	r3, [r0, #24]
 8003a10:	b90b      	cbnz	r3, 8003a16 <__swbuf_r+0x12>
 8003a12:	f000 f9ef 	bl	8003df4 <__sinit>
 8003a16:	4b21      	ldr	r3, [pc, #132]	; (8003a9c <__swbuf_r+0x98>)
 8003a18:	429c      	cmp	r4, r3
 8003a1a:	d12b      	bne.n	8003a74 <__swbuf_r+0x70>
 8003a1c:	686c      	ldr	r4, [r5, #4]
 8003a1e:	69a3      	ldr	r3, [r4, #24]
 8003a20:	60a3      	str	r3, [r4, #8]
 8003a22:	89a3      	ldrh	r3, [r4, #12]
 8003a24:	071a      	lsls	r2, r3, #28
 8003a26:	d52f      	bpl.n	8003a88 <__swbuf_r+0x84>
 8003a28:	6923      	ldr	r3, [r4, #16]
 8003a2a:	b36b      	cbz	r3, 8003a88 <__swbuf_r+0x84>
 8003a2c:	6923      	ldr	r3, [r4, #16]
 8003a2e:	6820      	ldr	r0, [r4, #0]
 8003a30:	1ac0      	subs	r0, r0, r3
 8003a32:	6963      	ldr	r3, [r4, #20]
 8003a34:	b2f6      	uxtb	r6, r6
 8003a36:	4283      	cmp	r3, r0
 8003a38:	4637      	mov	r7, r6
 8003a3a:	dc04      	bgt.n	8003a46 <__swbuf_r+0x42>
 8003a3c:	4621      	mov	r1, r4
 8003a3e:	4628      	mov	r0, r5
 8003a40:	f000 f944 	bl	8003ccc <_fflush_r>
 8003a44:	bb30      	cbnz	r0, 8003a94 <__swbuf_r+0x90>
 8003a46:	68a3      	ldr	r3, [r4, #8]
 8003a48:	3b01      	subs	r3, #1
 8003a4a:	60a3      	str	r3, [r4, #8]
 8003a4c:	6823      	ldr	r3, [r4, #0]
 8003a4e:	1c5a      	adds	r2, r3, #1
 8003a50:	6022      	str	r2, [r4, #0]
 8003a52:	701e      	strb	r6, [r3, #0]
 8003a54:	6963      	ldr	r3, [r4, #20]
 8003a56:	3001      	adds	r0, #1
 8003a58:	4283      	cmp	r3, r0
 8003a5a:	d004      	beq.n	8003a66 <__swbuf_r+0x62>
 8003a5c:	89a3      	ldrh	r3, [r4, #12]
 8003a5e:	07db      	lsls	r3, r3, #31
 8003a60:	d506      	bpl.n	8003a70 <__swbuf_r+0x6c>
 8003a62:	2e0a      	cmp	r6, #10
 8003a64:	d104      	bne.n	8003a70 <__swbuf_r+0x6c>
 8003a66:	4621      	mov	r1, r4
 8003a68:	4628      	mov	r0, r5
 8003a6a:	f000 f92f 	bl	8003ccc <_fflush_r>
 8003a6e:	b988      	cbnz	r0, 8003a94 <__swbuf_r+0x90>
 8003a70:	4638      	mov	r0, r7
 8003a72:	bdf8      	pop	{r3, r4, r5, r6, r7, pc}
 8003a74:	4b0a      	ldr	r3, [pc, #40]	; (8003aa0 <__swbuf_r+0x9c>)
 8003a76:	429c      	cmp	r4, r3
 8003a78:	d101      	bne.n	8003a7e <__swbuf_r+0x7a>
 8003a7a:	68ac      	ldr	r4, [r5, #8]
 8003a7c:	e7cf      	b.n	8003a1e <__swbuf_r+0x1a>
 8003a7e:	4b09      	ldr	r3, [pc, #36]	; (8003aa4 <__swbuf_r+0xa0>)
 8003a80:	429c      	cmp	r4, r3
 8003a82:	bf08      	it	eq
 8003a84:	68ec      	ldreq	r4, [r5, #12]
 8003a86:	e7ca      	b.n	8003a1e <__swbuf_r+0x1a>
 8003a88:	4621      	mov	r1, r4
 8003a8a:	4628      	mov	r0, r5
 8003a8c:	f000 f80c 	bl	8003aa8 <__swsetup_r>
 8003a90:	2800      	cmp	r0, #0
 8003a92:	d0cb      	beq.n	8003a2c <__swbuf_r+0x28>
 8003a94:	f04f 37ff 	mov.w	r7, #4294967295
 8003a98:	e7ea      	b.n	8003a70 <__swbuf_r+0x6c>
 8003a9a:	bf00      	nop
 8003a9c:	08005550 	.word	0x08005550
 8003aa0:	08005570 	.word	0x08005570
 8003aa4:	08005530 	.word	0x08005530

08003aa8 <__swsetup_r>:
 8003aa8:	4b32      	ldr	r3, [pc, #200]	; (8003b74 <__swsetup_r+0xcc>)
 8003aaa:	b570      	push	{r4, r5, r6, lr}
 8003aac:	681d      	ldr	r5, [r3, #0]
 8003aae:	4606      	mov	r6, r0
 8003ab0:	460c      	mov	r4, r1
 8003ab2:	b125      	cbz	r5, 8003abe <__swsetup_r+0x16>
 8003ab4:	69ab      	ldr	r3, [r5, #24]
 8003ab6:	b913      	cbnz	r3, 8003abe <__swsetup_r+0x16>
 8003ab8:	4628      	mov	r0, r5
 8003aba:	f000 f99b 	bl	8003df4 <__sinit>
 8003abe:	4b2e      	ldr	r3, [pc, #184]	; (8003b78 <__swsetup_r+0xd0>)
 8003ac0:	429c      	cmp	r4, r3
 8003ac2:	d10f      	bne.n	8003ae4 <__swsetup_r+0x3c>
 8003ac4:	686c      	ldr	r4, [r5, #4]
 8003ac6:	89a3      	ldrh	r3, [r4, #12]
 8003ac8:	f9b4 200c 	ldrsh.w	r2, [r4, #12]
 8003acc:	0719      	lsls	r1, r3, #28
 8003ace:	d42c      	bmi.n	8003b2a <__swsetup_r+0x82>
 8003ad0:	06dd      	lsls	r5, r3, #27
 8003ad2:	d411      	bmi.n	8003af8 <__swsetup_r+0x50>
 8003ad4:	2309      	movs	r3, #9
 8003ad6:	6033      	str	r3, [r6, #0]
 8003ad8:	f042 0340 	orr.w	r3, r2, #64	; 0x40
 8003adc:	81a3      	strh	r3, [r4, #12]
 8003ade:	f04f 30ff 	mov.w	r0, #4294967295
 8003ae2:	e03e      	b.n	8003b62 <__swsetup_r+0xba>
 8003ae4:	4b25      	ldr	r3, [pc, #148]	; (8003b7c <__swsetup_r+0xd4>)
 8003ae6:	429c      	cmp	r4, r3
 8003ae8:	d101      	bne.n	8003aee <__swsetup_r+0x46>
 8003aea:	68ac      	ldr	r4, [r5, #8]
 8003aec:	e7eb      	b.n	8003ac6 <__swsetup_r+0x1e>
 8003aee:	4b24      	ldr	r3, [pc, #144]	; (8003b80 <__swsetup_r+0xd8>)
 8003af0:	429c      	cmp	r4, r3
 8003af2:	bf08      	it	eq
 8003af4:	68ec      	ldreq	r4, [r5, #12]
 8003af6:	e7e6      	b.n	8003ac6 <__swsetup_r+0x1e>
 8003af8:	0758      	lsls	r0, r3, #29
 8003afa:	d512      	bpl.n	8003b22 <__swsetup_r+0x7a>
 8003afc:	6b61      	ldr	r1, [r4, #52]	; 0x34
 8003afe:	b141      	cbz	r1, 8003b12 <__swsetup_r+0x6a>
 8003b00:	f104 0344 	add.w	r3, r4, #68	; 0x44
 8003b04:	4299      	cmp	r1, r3
 8003b06:	d002      	beq.n	8003b0e <__swsetup_r+0x66>
 8003b08:	4630      	mov	r0, r6
 8003b0a:	f000 fa91 	bl	8004030 <_free_r>
 8003b0e:	2300      	movs	r3, #0
 8003b10:	6363      	str	r3, [r4, #52]	; 0x34
 8003b12:	89a3      	ldrh	r3, [r4, #12]
 8003b14:	f023 0324 	bic.w	r3, r3, #36	; 0x24
 8003b18:	81a3      	strh	r3, [r4, #12]
 8003b1a:	2300      	movs	r3, #0
 8003b1c:	6063      	str	r3, [r4, #4]
 8003b1e:	6923      	ldr	r3, [r4, #16]
 8003b20:	6023      	str	r3, [r4, #0]
 8003b22:	89a3      	ldrh	r3, [r4, #12]
 8003b24:	f043 0308 	orr.w	r3, r3, #8
 8003b28:	81a3      	strh	r3, [r4, #12]
 8003b2a:	6923      	ldr	r3, [r4, #16]
 8003b2c:	b94b      	cbnz	r3, 8003b42 <__swsetup_r+0x9a>
 8003b2e:	89a3      	ldrh	r3, [r4, #12]
 8003b30:	f403 7320 	and.w	r3, r3, #640	; 0x280
 8003b34:	f5b3 7f00 	cmp.w	r3, #512	; 0x200
 8003b38:	d003      	beq.n	8003b42 <__swsetup_r+0x9a>
 8003b3a:	4621      	mov	r1, r4
 8003b3c:	4630      	mov	r0, r6
 8003b3e:	f000 fa2f 	bl	8003fa0 <__smakebuf_r>
 8003b42:	89a0      	ldrh	r0, [r4, #12]
 8003b44:	f9b4 200c 	ldrsh.w	r2, [r4, #12]
 8003b48:	f010 0301 	ands.w	r3, r0, #1
 8003b4c:	d00a      	beq.n	8003b64 <__swsetup_r+0xbc>
 8003b4e:	2300      	movs	r3, #0
 8003b50:	60a3      	str	r3, [r4, #8]
 8003b52:	6963      	ldr	r3, [r4, #20]
 8003b54:	425b      	negs	r3, r3
 8003b56:	61a3      	str	r3, [r4, #24]
 8003b58:	6923      	ldr	r3, [r4, #16]
 8003b5a:	b943      	cbnz	r3, 8003b6e <__swsetup_r+0xc6>
 8003b5c:	f010 0080 	ands.w	r0, r0, #128	; 0x80
 8003b60:	d1ba      	bne.n	8003ad8 <__swsetup_r+0x30>
 8003b62:	bd70      	pop	{r4, r5, r6, pc}
 8003b64:	0781      	lsls	r1, r0, #30
 8003b66:	bf58      	it	pl
 8003b68:	6963      	ldrpl	r3, [r4, #20]
 8003b6a:	60a3      	str	r3, [r4, #8]
 8003b6c:	e7f4      	b.n	8003b58 <__swsetup_r+0xb0>
 8003b6e:	2000      	movs	r0, #0
 8003b70:	e7f7      	b.n	8003b62 <__swsetup_r+0xba>
 8003b72:	bf00      	nop
 8003b74:	2000005c 	.word	0x2000005c
 8003b78:	08005550 	.word	0x08005550
 8003b7c:	08005570 	.word	0x08005570
 8003b80:	08005530 	.word	0x08005530

08003b84 <__assert_func>:
 8003b84:	b51f      	push	{r0, r1, r2, r3, r4, lr}
 8003b86:	4614      	mov	r4, r2
 8003b88:	461a      	mov	r2, r3
 8003b8a:	4b09      	ldr	r3, [pc, #36]	; (8003bb0 <__assert_func+0x2c>)
 8003b8c:	681b      	ldr	r3, [r3, #0]
 8003b8e:	4605      	mov	r5, r0
 8003b90:	68d8      	ldr	r0, [r3, #12]
 8003b92:	b14c      	cbz	r4, 8003ba8 <__assert_func+0x24>
 8003b94:	4b07      	ldr	r3, [pc, #28]	; (8003bb4 <__assert_func+0x30>)
 8003b96:	9100      	str	r1, [sp, #0]
 8003b98:	e9cd 3401 	strd	r3, r4, [sp, #4]
 8003b9c:	4906      	ldr	r1, [pc, #24]	; (8003bb8 <__assert_func+0x34>)
 8003b9e:	462b      	mov	r3, r5
 8003ba0:	f000 f9a6 	bl	8003ef0 <fiprintf>
 8003ba4:	f000 ffd3 	bl	8004b4e <abort>
 8003ba8:	4b04      	ldr	r3, [pc, #16]	; (8003bbc <__assert_func+0x38>)
 8003baa:	461c      	mov	r4, r3
 8003bac:	e7f3      	b.n	8003b96 <__assert_func+0x12>
 8003bae:	bf00      	nop
 8003bb0:	2000005c 	.word	0x2000005c
 8003bb4:	080054f2 	.word	0x080054f2
 8003bb8:	080054ff 	.word	0x080054ff
 8003bbc:	0800552d 	.word	0x0800552d

08003bc0 <__sflush_r>:
 8003bc0:	898a      	ldrh	r2, [r1, #12]
 8003bc2:	e92d 41f0 	stmdb	sp!, {r4, r5, r6, r7, r8, lr}
 8003bc6:	4605      	mov	r5, r0
 8003bc8:	0710      	lsls	r0, r2, #28
 8003bca:	460c      	mov	r4, r1
 8003bcc:	d458      	bmi.n	8003c80 <__sflush_r+0xc0>
 8003bce:	684b      	ldr	r3, [r1, #4]
 8003bd0:	2b00      	cmp	r3, #0
 8003bd2:	dc05      	bgt.n	8003be0 <__sflush_r+0x20>
 8003bd4:	6c0b      	ldr	r3, [r1, #64]	; 0x40
 8003bd6:	2b00      	cmp	r3, #0
 8003bd8:	dc02      	bgt.n	8003be0 <__sflush_r+0x20>
 8003bda:	2000      	movs	r0, #0
 8003bdc:	e8bd 81f0 	ldmia.w	sp!, {r4, r5, r6, r7, r8, pc}
 8003be0:	6ae6      	ldr	r6, [r4, #44]	; 0x2c
 8003be2:	2e00      	cmp	r6, #0
 8003be4:	d0f9      	beq.n	8003bda <__sflush_r+0x1a>
 8003be6:	2300      	movs	r3, #0
 8003be8:	f412 5280 	ands.w	r2, r2, #4096	; 0x1000
 8003bec:	682f      	ldr	r7, [r5, #0]
 8003bee:	602b      	str	r3, [r5, #0]
 8003bf0:	d032      	beq.n	8003c58 <__sflush_r+0x98>
 8003bf2:	6d60      	ldr	r0, [r4, #84]	; 0x54
 8003bf4:	89a3      	ldrh	r3, [r4, #12]
 8003bf6:	075a      	lsls	r2, r3, #29
 8003bf8:	d505      	bpl.n	8003c06 <__sflush_r+0x46>
 8003bfa:	6863      	ldr	r3, [r4, #4]
 8003bfc:	1ac0      	subs	r0, r0, r3
 8003bfe:	6b63      	ldr	r3, [r4, #52]	; 0x34
 8003c00:	b10b      	cbz	r3, 8003c06 <__sflush_r+0x46>
 8003c02:	6c23      	ldr	r3, [r4, #64]	; 0x40
 8003c04:	1ac0      	subs	r0, r0, r3
 8003c06:	2300      	movs	r3, #0
 8003c08:	4602      	mov	r2, r0
 8003c0a:	6ae6      	ldr	r6, [r4, #44]	; 0x2c
 8003c0c:	6a21      	ldr	r1, [r4, #32]
 8003c0e:	4628      	mov	r0, r5
 8003c10:	47b0      	blx	r6
 8003c12:	1c43      	adds	r3, r0, #1
 8003c14:	89a3      	ldrh	r3, [r4, #12]
 8003c16:	d106      	bne.n	8003c26 <__sflush_r+0x66>
 8003c18:	6829      	ldr	r1, [r5, #0]
 8003c1a:	291d      	cmp	r1, #29
 8003c1c:	d82c      	bhi.n	8003c78 <__sflush_r+0xb8>
 8003c1e:	4a2a      	ldr	r2, [pc, #168]	; (8003cc8 <__sflush_r+0x108>)
 8003c20:	40ca      	lsrs	r2, r1
 8003c22:	07d6      	lsls	r6, r2, #31
 8003c24:	d528      	bpl.n	8003c78 <__sflush_r+0xb8>
 8003c26:	2200      	movs	r2, #0
 8003c28:	6062      	str	r2, [r4, #4]
 8003c2a:	04d9      	lsls	r1, r3, #19
 8003c2c:	6922      	ldr	r2, [r4, #16]
 8003c2e:	6022      	str	r2, [r4, #0]
 8003c30:	d504      	bpl.n	8003c3c <__sflush_r+0x7c>
 8003c32:	1c42      	adds	r2, r0, #1
 8003c34:	d101      	bne.n	8003c3a <__sflush_r+0x7a>
 8003c36:	682b      	ldr	r3, [r5, #0]
 8003c38:	b903      	cbnz	r3, 8003c3c <__sflush_r+0x7c>
 8003c3a:	6560      	str	r0, [r4, #84]	; 0x54
 8003c3c:	6b61      	ldr	r1, [r4, #52]	; 0x34
 8003c3e:	602f      	str	r7, [r5, #0]
 8003c40:	2900      	cmp	r1, #0
 8003c42:	d0ca      	beq.n	8003bda <__sflush_r+0x1a>
 8003c44:	f104 0344 	add.w	r3, r4, #68	; 0x44
 8003c48:	4299      	cmp	r1, r3
 8003c4a:	d002      	beq.n	8003c52 <__sflush_r+0x92>
 8003c4c:	4628      	mov	r0, r5
 8003c4e:	f000 f9ef 	bl	8004030 <_free_r>
 8003c52:	2000      	movs	r0, #0
 8003c54:	6360      	str	r0, [r4, #52]	; 0x34
 8003c56:	e7c1      	b.n	8003bdc <__sflush_r+0x1c>
 8003c58:	6a21      	ldr	r1, [r4, #32]
 8003c5a:	2301      	movs	r3, #1
 8003c5c:	4628      	mov	r0, r5
 8003c5e:	47b0      	blx	r6
 8003c60:	1c41      	adds	r1, r0, #1
 8003c62:	d1c7      	bne.n	8003bf4 <__sflush_r+0x34>
 8003c64:	682b      	ldr	r3, [r5, #0]
 8003c66:	2b00      	cmp	r3, #0
 8003c68:	d0c4      	beq.n	8003bf4 <__sflush_r+0x34>
 8003c6a:	2b1d      	cmp	r3, #29
 8003c6c:	d001      	beq.n	8003c72 <__sflush_r+0xb2>
 8003c6e:	2b16      	cmp	r3, #22
 8003c70:	d101      	bne.n	8003c76 <__sflush_r+0xb6>
 8003c72:	602f      	str	r7, [r5, #0]
 8003c74:	e7b1      	b.n	8003bda <__sflush_r+0x1a>
 8003c76:	89a3      	ldrh	r3, [r4, #12]
 8003c78:	f043 0340 	orr.w	r3, r3, #64	; 0x40
 8003c7c:	81a3      	strh	r3, [r4, #12]
 8003c7e:	e7ad      	b.n	8003bdc <__sflush_r+0x1c>
 8003c80:	690f      	ldr	r7, [r1, #16]
 8003c82:	2f00      	cmp	r7, #0
 8003c84:	d0a9      	beq.n	8003bda <__sflush_r+0x1a>
 8003c86:	0793      	lsls	r3, r2, #30
 8003c88:	680e      	ldr	r6, [r1, #0]
 8003c8a:	bf08      	it	eq
 8003c8c:	694b      	ldreq	r3, [r1, #20]
 8003c8e:	600f      	str	r7, [r1, #0]
 8003c90:	bf18      	it	ne
 8003c92:	2300      	movne	r3, #0
 8003c94:	eba6 0807 	sub.w	r8, r6, r7
 8003c98:	608b      	str	r3, [r1, #8]
 8003c9a:	f1b8 0f00 	cmp.w	r8, #0
 8003c9e:	dd9c      	ble.n	8003bda <__sflush_r+0x1a>
 8003ca0:	6a21      	ldr	r1, [r4, #32]
 8003ca2:	6aa6      	ldr	r6, [r4, #40]	; 0x28
 8003ca4:	4643      	mov	r3, r8
 8003ca6:	463a      	mov	r2, r7
 8003ca8:	4628      	mov	r0, r5
 8003caa:	47b0      	blx	r6
 8003cac:	2800      	cmp	r0, #0
 8003cae:	dc06      	bgt.n	8003cbe <__sflush_r+0xfe>
 8003cb0:	89a3      	ldrh	r3, [r4, #12]
 8003cb2:	f043 0340 	orr.w	r3, r3, #64	; 0x40
 8003cb6:	81a3      	strh	r3, [r4, #12]
 8003cb8:	f04f 30ff 	mov.w	r0, #4294967295
 8003cbc:	e78e      	b.n	8003bdc <__sflush_r+0x1c>
 8003cbe:	4407      	add	r7, r0
 8003cc0:	eba8 0800 	sub.w	r8, r8, r0
 8003cc4:	e7e9      	b.n	8003c9a <__sflush_r+0xda>
 8003cc6:	bf00      	nop
 8003cc8:	20400001 	.word	0x20400001

08003ccc <_fflush_r>:
 8003ccc:	b538      	push	{r3, r4, r5, lr}
 8003cce:	690b      	ldr	r3, [r1, #16]
 8003cd0:	4605      	mov	r5, r0
 8003cd2:	460c      	mov	r4, r1
 8003cd4:	b913      	cbnz	r3, 8003cdc <_fflush_r+0x10>
 8003cd6:	2500      	movs	r5, #0
 8003cd8:	4628      	mov	r0, r5
 8003cda:	bd38      	pop	{r3, r4, r5, pc}
 8003cdc:	b118      	cbz	r0, 8003ce6 <_fflush_r+0x1a>
 8003cde:	6983      	ldr	r3, [r0, #24]
 8003ce0:	b90b      	cbnz	r3, 8003ce6 <_fflush_r+0x1a>
 8003ce2:	f000 f887 	bl	8003df4 <__sinit>
 8003ce6:	4b14      	ldr	r3, [pc, #80]	; (8003d38 <_fflush_r+0x6c>)
 8003ce8:	429c      	cmp	r4, r3
 8003cea:	d11b      	bne.n	8003d24 <_fflush_r+0x58>
 8003cec:	686c      	ldr	r4, [r5, #4]
 8003cee:	f9b4 300c 	ldrsh.w	r3, [r4, #12]
 8003cf2:	2b00      	cmp	r3, #0
 8003cf4:	d0ef      	beq.n	8003cd6 <_fflush_r+0xa>
 8003cf6:	6e62      	ldr	r2, [r4, #100]	; 0x64
 8003cf8:	07d0      	lsls	r0, r2, #31
 8003cfa:	d404      	bmi.n	8003d06 <_fflush_r+0x3a>
 8003cfc:	0599      	lsls	r1, r3, #22
 8003cfe:	d402      	bmi.n	8003d06 <_fflush_r+0x3a>
 8003d00:	6da0      	ldr	r0, [r4, #88]	; 0x58
 8003d02:	f000 f927 	bl	8003f54 <__retarget_lock_acquire_recursive>
 8003d06:	4628      	mov	r0, r5
 8003d08:	4621      	mov	r1, r4
 8003d0a:	f7ff ff59 	bl	8003bc0 <__sflush_r>
 8003d0e:	6e63      	ldr	r3, [r4, #100]	; 0x64
 8003d10:	07da      	lsls	r2, r3, #31
 8003d12:	4605      	mov	r5, r0
 8003d14:	d4e0      	bmi.n	8003cd8 <_fflush_r+0xc>
 8003d16:	89a3      	ldrh	r3, [r4, #12]
 8003d18:	059b      	lsls	r3, r3, #22
 8003d1a:	d4dd      	bmi.n	8003cd8 <_fflush_r+0xc>
 8003d1c:	6da0      	ldr	r0, [r4, #88]	; 0x58
 8003d1e:	f000 f91a 	bl	8003f56 <__retarget_lock_release_recursive>
 8003d22:	e7d9      	b.n	8003cd8 <_fflush_r+0xc>
 8003d24:	4b05      	ldr	r3, [pc, #20]	; (8003d3c <_fflush_r+0x70>)
 8003d26:	429c      	cmp	r4, r3
 8003d28:	d101      	bne.n	8003d2e <_fflush_r+0x62>
 8003d2a:	68ac      	ldr	r4, [r5, #8]
 8003d2c:	e7df      	b.n	8003cee <_fflush_r+0x22>
 8003d2e:	4b04      	ldr	r3, [pc, #16]	; (8003d40 <_fflush_r+0x74>)
 8003d30:	429c      	cmp	r4, r3
 8003d32:	bf08      	it	eq
 8003d34:	68ec      	ldreq	r4, [r5, #12]
 8003d36:	e7da      	b.n	8003cee <_fflush_r+0x22>
 8003d38:	08005550 	.word	0x08005550
 8003d3c:	08005570 	.word	0x08005570
 8003d40:	08005530 	.word	0x08005530

08003d44 <std>:
 8003d44:	2300      	movs	r3, #0
 8003d46:	b510      	push	{r4, lr}
 8003d48:	4604      	mov	r4, r0
 8003d4a:	e9c0 3300 	strd	r3, r3, [r0]
 8003d4e:	e9c0 3304 	strd	r3, r3, [r0, #16]
 8003d52:	6083      	str	r3, [r0, #8]
 8003d54:	8181      	strh	r1, [r0, #12]
 8003d56:	6643      	str	r3, [r0, #100]	; 0x64
 8003d58:	81c2      	strh	r2, [r0, #14]
 8003d5a:	6183      	str	r3, [r0, #24]
 8003d5c:	4619      	mov	r1, r3
 8003d5e:	2208      	movs	r2, #8
 8003d60:	305c      	adds	r0, #92	; 0x5c
 8003d62:	f7ff fc75 	bl	8003650 <memset>
 8003d66:	4b05      	ldr	r3, [pc, #20]	; (8003d7c <std+0x38>)
 8003d68:	6263      	str	r3, [r4, #36]	; 0x24
 8003d6a:	4b05      	ldr	r3, [pc, #20]	; (8003d80 <std+0x3c>)
 8003d6c:	62a3      	str	r3, [r4, #40]	; 0x28
 8003d6e:	4b05      	ldr	r3, [pc, #20]	; (8003d84 <std+0x40>)
 8003d70:	62e3      	str	r3, [r4, #44]	; 0x2c
 8003d72:	4b05      	ldr	r3, [pc, #20]	; (8003d88 <std+0x44>)
 8003d74:	6224      	str	r4, [r4, #32]
 8003d76:	6323      	str	r3, [r4, #48]	; 0x30
 8003d78:	bd10      	pop	{r4, pc}
 8003d7a:	bf00      	nop
 8003d7c:	08004ac9 	.word	0x08004ac9
 8003d80:	08004aeb 	.word	0x08004aeb
 8003d84:	08004b23 	.word	0x08004b23
 8003d88:	08004b47 	.word	0x08004b47

08003d8c <_cleanup_r>:
 8003d8c:	4901      	ldr	r1, [pc, #4]	; (8003d94 <_cleanup_r+0x8>)
 8003d8e:	f000 b8c1 	b.w	8003f14 <_fwalk_reent>
 8003d92:	bf00      	nop
 8003d94:	08003ccd 	.word	0x08003ccd

08003d98 <__sfmoreglue>:
 8003d98:	b570      	push	{r4, r5, r6, lr}
 8003d9a:	1e4a      	subs	r2, r1, #1
 8003d9c:	2568      	movs	r5, #104	; 0x68
 8003d9e:	4355      	muls	r5, r2
 8003da0:	460e      	mov	r6, r1
 8003da2:	f105 0174 	add.w	r1, r5, #116	; 0x74
 8003da6:	f000 f993 	bl	80040d0 <_malloc_r>
 8003daa:	4604      	mov	r4, r0
 8003dac:	b140      	cbz	r0, 8003dc0 <__sfmoreglue+0x28>
 8003dae:	2100      	movs	r1, #0
 8003db0:	e9c0 1600 	strd	r1, r6, [r0]
 8003db4:	300c      	adds	r0, #12
 8003db6:	60a0      	str	r0, [r4, #8]
 8003db8:	f105 0268 	add.w	r2, r5, #104	; 0x68
 8003dbc:	f7ff fc48 	bl	8003650 <memset>
 8003dc0:	4620      	mov	r0, r4
 8003dc2:	bd70      	pop	{r4, r5, r6, pc}

08003dc4 <__sfp_lock_acquire>:
 8003dc4:	4801      	ldr	r0, [pc, #4]	; (8003dcc <__sfp_lock_acquire+0x8>)
 8003dc6:	f000 b8c5 	b.w	8003f54 <__retarget_lock_acquire_recursive>
 8003dca:	bf00      	nop
 8003dcc:	20000621 	.word	0x20000621

08003dd0 <__sfp_lock_release>:
 8003dd0:	4801      	ldr	r0, [pc, #4]	; (8003dd8 <__sfp_lock_release+0x8>)
 8003dd2:	f000 b8c0 	b.w	8003f56 <__retarget_lock_release_recursive>
 8003dd6:	bf00      	nop
 8003dd8:	20000621 	.word	0x20000621

08003ddc <__sinit_lock_acquire>:
 8003ddc:	4801      	ldr	r0, [pc, #4]	; (8003de4 <__sinit_lock_acquire+0x8>)
 8003dde:	f000 b8b9 	b.w	8003f54 <__retarget_lock_acquire_recursive>
 8003de2:	bf00      	nop
 8003de4:	2000061c 	.word	0x2000061c

08003de8 <__sinit_lock_release>:
 8003de8:	4801      	ldr	r0, [pc, #4]	; (8003df0 <__sinit_lock_release+0x8>)
 8003dea:	f000 b8b4 	b.w	8003f56 <__retarget_lock_release_recursive>
 8003dee:	bf00      	nop
 8003df0:	2000061c 	.word	0x2000061c

08003df4 <__sinit>:
 8003df4:	b510      	push	{r4, lr}
 8003df6:	4604      	mov	r4, r0
 8003df8:	f7ff fff0 	bl	8003ddc <__sinit_lock_acquire>
 8003dfc:	69a3      	ldr	r3, [r4, #24]
 8003dfe:	b11b      	cbz	r3, 8003e08 <__sinit+0x14>
 8003e00:	e8bd 4010 	ldmia.w	sp!, {r4, lr}
 8003e04:	f7ff bff0 	b.w	8003de8 <__sinit_lock_release>
 8003e08:	e9c4 3312 	strd	r3, r3, [r4, #72]	; 0x48
 8003e0c:	6523      	str	r3, [r4, #80]	; 0x50
 8003e0e:	4b13      	ldr	r3, [pc, #76]	; (8003e5c <__sinit+0x68>)
 8003e10:	4a13      	ldr	r2, [pc, #76]	; (8003e60 <__sinit+0x6c>)
 8003e12:	681b      	ldr	r3, [r3, #0]
 8003e14:	62a2      	str	r2, [r4, #40]	; 0x28
 8003e16:	42a3      	cmp	r3, r4
 8003e18:	bf04      	itt	eq
 8003e1a:	2301      	moveq	r3, #1
 8003e1c:	61a3      	streq	r3, [r4, #24]
 8003e1e:	4620      	mov	r0, r4
 8003e20:	f000 f820 	bl	8003e64 <__sfp>
 8003e24:	6060      	str	r0, [r4, #4]
 8003e26:	4620      	mov	r0, r4
 8003e28:	f000 f81c 	bl	8003e64 <__sfp>
 8003e2c:	60a0      	str	r0, [r4, #8]
 8003e2e:	4620      	mov	r0, r4
 8003e30:	f000 f818 	bl	8003e64 <__sfp>
 8003e34:	2200      	movs	r2, #0
 8003e36:	60e0      	str	r0, [r4, #12]
 8003e38:	2104      	movs	r1, #4
 8003e3a:	6860      	ldr	r0, [r4, #4]
 8003e3c:	f7ff ff82 	bl	8003d44 <std>
 8003e40:	68a0      	ldr	r0, [r4, #8]
 8003e42:	2201      	movs	r2, #1
 8003e44:	2109      	movs	r1, #9
 8003e46:	f7ff ff7d 	bl	8003d44 <std>
 8003e4a:	68e0      	ldr	r0, [r4, #12]
 8003e4c:	2202      	movs	r2, #2
 8003e4e:	2112      	movs	r1, #18
 8003e50:	f7ff ff78 	bl	8003d44 <std>
 8003e54:	2301      	movs	r3, #1
 8003e56:	61a3      	str	r3, [r4, #24]
 8003e58:	e7d2      	b.n	8003e00 <__sinit+0xc>
 8003e5a:	bf00      	nop
 8003e5c:	08005478 	.word	0x08005478
 8003e60:	08003d8d 	.word	0x08003d8d

08003e64 <__sfp>:
 8003e64:	b5f8      	push	{r3, r4, r5, r6, r7, lr}
 8003e66:	4607      	mov	r7, r0
 8003e68:	f7ff ffac 	bl	8003dc4 <__sfp_lock_acquire>
 8003e6c:	4b1e      	ldr	r3, [pc, #120]	; (8003ee8 <__sfp+0x84>)
 8003e6e:	681e      	ldr	r6, [r3, #0]
 8003e70:	69b3      	ldr	r3, [r6, #24]
 8003e72:	b913      	cbnz	r3, 8003e7a <__sfp+0x16>
 8003e74:	4630      	mov	r0, r6
 8003e76:	f7ff ffbd 	bl	8003df4 <__sinit>
 8003e7a:	3648      	adds	r6, #72	; 0x48
 8003e7c:	e9d6 3401 	ldrd	r3, r4, [r6, #4]
 8003e80:	3b01      	subs	r3, #1
 8003e82:	d503      	bpl.n	8003e8c <__sfp+0x28>
 8003e84:	6833      	ldr	r3, [r6, #0]
 8003e86:	b30b      	cbz	r3, 8003ecc <__sfp+0x68>
 8003e88:	6836      	ldr	r6, [r6, #0]
 8003e8a:	e7f7      	b.n	8003e7c <__sfp+0x18>
 8003e8c:	f9b4 500c 	ldrsh.w	r5, [r4, #12]
 8003e90:	b9d5      	cbnz	r5, 8003ec8 <__sfp+0x64>
 8003e92:	4b16      	ldr	r3, [pc, #88]	; (8003eec <__sfp+0x88>)
 8003e94:	60e3      	str	r3, [r4, #12]
 8003e96:	f104 0058 	add.w	r0, r4, #88	; 0x58
 8003e9a:	6665      	str	r5, [r4, #100]	; 0x64
 8003e9c:	f000 f859 	bl	8003f52 <__retarget_lock_init_recursive>
 8003ea0:	f7ff ff96 	bl	8003dd0 <__sfp_lock_release>
 8003ea4:	e9c4 5501 	strd	r5, r5, [r4, #4]
 8003ea8:	e9c4 5504 	strd	r5, r5, [r4, #16]
 8003eac:	6025      	str	r5, [r4, #0]
 8003eae:	61a5      	str	r5, [r4, #24]
 8003eb0:	2208      	movs	r2, #8
 8003eb2:	4629      	mov	r1, r5
 8003eb4:	f104 005c 	add.w	r0, r4, #92	; 0x5c
 8003eb8:	f7ff fbca 	bl	8003650 <memset>
 8003ebc:	e9c4 550d 	strd	r5, r5, [r4, #52]	; 0x34
 8003ec0:	e9c4 5512 	strd	r5, r5, [r4, #72]	; 0x48
 8003ec4:	4620      	mov	r0, r4
 8003ec6:	bdf8      	pop	{r3, r4, r5, r6, r7, pc}
 8003ec8:	3468      	adds	r4, #104	; 0x68
 8003eca:	e7d9      	b.n	8003e80 <__sfp+0x1c>
 8003ecc:	2104      	movs	r1, #4
 8003ece:	4638      	mov	r0, r7
 8003ed0:	f7ff ff62 	bl	8003d98 <__sfmoreglue>
 8003ed4:	4604      	mov	r4, r0
 8003ed6:	6030      	str	r0, [r6, #0]
 8003ed8:	2800      	cmp	r0, #0
 8003eda:	d1d5      	bne.n	8003e88 <__sfp+0x24>
 8003edc:	f7ff ff78 	bl	8003dd0 <__sfp_lock_release>
 8003ee0:	230c      	movs	r3, #12
 8003ee2:	603b      	str	r3, [r7, #0]
 8003ee4:	e7ee      	b.n	8003ec4 <__sfp+0x60>
 8003ee6:	bf00      	nop
 8003ee8:	08005478 	.word	0x08005478
 8003eec:	ffff0001 	.word	0xffff0001

08003ef0 <fiprintf>:
 8003ef0:	b40e      	push	{r1, r2, r3}
 8003ef2:	b503      	push	{r0, r1, lr}
 8003ef4:	4601      	mov	r1, r0
 8003ef6:	ab03      	add	r3, sp, #12
 8003ef8:	4805      	ldr	r0, [pc, #20]	; (8003f10 <fiprintf+0x20>)
 8003efa:	f853 2b04 	ldr.w	r2, [r3], #4
 8003efe:	6800      	ldr	r0, [r0, #0]
 8003f00:	9301      	str	r3, [sp, #4]
 8003f02:	f000 fac5 	bl	8004490 <_vfiprintf_r>
 8003f06:	b002      	add	sp, #8
 8003f08:	f85d eb04 	ldr.w	lr, [sp], #4
 8003f0c:	b003      	add	sp, #12
 8003f0e:	4770      	bx	lr
 8003f10:	2000005c 	.word	0x2000005c

08003f14 <_fwalk_reent>:
 8003f14:	e92d 43f8 	stmdb	sp!, {r3, r4, r5, r6, r7, r8, r9, lr}
 8003f18:	4606      	mov	r6, r0
 8003f1a:	4688      	mov	r8, r1
 8003f1c:	f100 0448 	add.w	r4, r0, #72	; 0x48
 8003f20:	2700      	movs	r7, #0
 8003f22:	e9d4 9501 	ldrd	r9, r5, [r4, #4]
 8003f26:	f1b9 0901 	subs.w	r9, r9, #1
 8003f2a:	d505      	bpl.n	8003f38 <_fwalk_reent+0x24>
 8003f2c:	6824      	ldr	r4, [r4, #0]
 8003f2e:	2c00      	cmp	r4, #0
 8003f30:	d1f7      	bne.n	8003f22 <_fwalk_reent+0xe>
 8003f32:	4638      	mov	r0, r7
 8003f34:	e8bd 83f8 	ldmia.w	sp!, {r3, r4, r5, r6, r7, r8, r9, pc}
 8003f38:	89ab      	ldrh	r3, [r5, #12]
 8003f3a:	2b01      	cmp	r3, #1
 8003f3c:	d907      	bls.n	8003f4e <_fwalk_reent+0x3a>
 8003f3e:	f9b5 300e 	ldrsh.w	r3, [r5, #14]
 8003f42:	3301      	adds	r3, #1
 8003f44:	d003      	beq.n	8003f4e <_fwalk_reent+0x3a>
 8003f46:	4629      	mov	r1, r5
 8003f48:	4630      	mov	r0, r6
 8003f4a:	47c0      	blx	r8
 8003f4c:	4307      	orrs	r7, r0
 8003f4e:	3568      	adds	r5, #104	; 0x68
 8003f50:	e7e9      	b.n	8003f26 <_fwalk_reent+0x12>

08003f52 <__retarget_lock_init_recursive>:
 8003f52:	4770      	bx	lr

08003f54 <__retarget_lock_acquire_recursive>:
 8003f54:	4770      	bx	lr

08003f56 <__retarget_lock_release_recursive>:
 8003f56:	4770      	bx	lr

08003f58 <__swhatbuf_r>:
 8003f58:	b570      	push	{r4, r5, r6, lr}
 8003f5a:	460e      	mov	r6, r1
 8003f5c:	f9b1 100e 	ldrsh.w	r1, [r1, #14]
 8003f60:	2900      	cmp	r1, #0
 8003f62:	b096      	sub	sp, #88	; 0x58
 8003f64:	4614      	mov	r4, r2
 8003f66:	461d      	mov	r5, r3
 8003f68:	da07      	bge.n	8003f7a <__swhatbuf_r+0x22>
 8003f6a:	2300      	movs	r3, #0
 8003f6c:	602b      	str	r3, [r5, #0]
 8003f6e:	89b3      	ldrh	r3, [r6, #12]
 8003f70:	061a      	lsls	r2, r3, #24
 8003f72:	d410      	bmi.n	8003f96 <__swhatbuf_r+0x3e>
 8003f74:	f44f 6380 	mov.w	r3, #1024	; 0x400
 8003f78:	e00e      	b.n	8003f98 <__swhatbuf_r+0x40>
 8003f7a:	466a      	mov	r2, sp
 8003f7c:	f000 fdfe 	bl	8004b7c <_fstat_r>
 8003f80:	2800      	cmp	r0, #0
 8003f82:	dbf2      	blt.n	8003f6a <__swhatbuf_r+0x12>
 8003f84:	9a01      	ldr	r2, [sp, #4]
 8003f86:	f402 4270 	and.w	r2, r2, #61440	; 0xf000
 8003f8a:	f5a2 5300 	sub.w	r3, r2, #8192	; 0x2000
 8003f8e:	425a      	negs	r2, r3
 8003f90:	415a      	adcs	r2, r3
 8003f92:	602a      	str	r2, [r5, #0]
 8003f94:	e7ee      	b.n	8003f74 <__swhatbuf_r+0x1c>
 8003f96:	2340      	movs	r3, #64	; 0x40
 8003f98:	2000      	movs	r0, #0
 8003f9a:	6023      	str	r3, [r4, #0]
 8003f9c:	b016      	add	sp, #88	; 0x58
 8003f9e:	bd70      	pop	{r4, r5, r6, pc}

08003fa0 <__smakebuf_r>:
 8003fa0:	898b      	ldrh	r3, [r1, #12]
 8003fa2:	b573      	push	{r0, r1, r4, r5, r6, lr}
 8003fa4:	079d      	lsls	r5, r3, #30
 8003fa6:	4606      	mov	r6, r0
 8003fa8:	460c      	mov	r4, r1
 8003faa:	d507      	bpl.n	8003fbc <__smakebuf_r+0x1c>
 8003fac:	f104 0347 	add.w	r3, r4, #71	; 0x47
 8003fb0:	6023      	str	r3, [r4, #0]
 8003fb2:	6123      	str	r3, [r4, #16]
 8003fb4:	2301      	movs	r3, #1
 8003fb6:	6163      	str	r3, [r4, #20]
 8003fb8:	b002      	add	sp, #8
 8003fba:	bd70      	pop	{r4, r5, r6, pc}
 8003fbc:	ab01      	add	r3, sp, #4
 8003fbe:	466a      	mov	r2, sp
 8003fc0:	f7ff ffca 	bl	8003f58 <__swhatbuf_r>
 8003fc4:	9900      	ldr	r1, [sp, #0]
 8003fc6:	4605      	mov	r5, r0
 8003fc8:	4630      	mov	r0, r6
 8003fca:	f000 f881 	bl	80040d0 <_malloc_r>
 8003fce:	b948      	cbnz	r0, 8003fe4 <__smakebuf_r+0x44>
 8003fd0:	f9b4 300c 	ldrsh.w	r3, [r4, #12]
 8003fd4:	059a      	lsls	r2, r3, #22
 8003fd6:	d4ef      	bmi.n	8003fb8 <__smakebuf_r+0x18>
 8003fd8:	f023 0303 	bic.w	r3, r3, #3
 8003fdc:	f043 0302 	orr.w	r3, r3, #2
 8003fe0:	81a3      	strh	r3, [r4, #12]
 8003fe2:	e7e3      	b.n	8003fac <__smakebuf_r+0xc>
 8003fe4:	4b0d      	ldr	r3, [pc, #52]	; (800401c <__smakebuf_r+0x7c>)
 8003fe6:	62b3      	str	r3, [r6, #40]	; 0x28
 8003fe8:	89a3      	ldrh	r3, [r4, #12]
 8003fea:	6020      	str	r0, [r4, #0]
 8003fec:	f043 0380 	orr.w	r3, r3, #128	; 0x80
 8003ff0:	81a3      	strh	r3, [r4, #12]
 8003ff2:	9b00      	ldr	r3, [sp, #0]
 8003ff4:	6163      	str	r3, [r4, #20]
 8003ff6:	9b01      	ldr	r3, [sp, #4]
 8003ff8:	6120      	str	r0, [r4, #16]
 8003ffa:	b15b      	cbz	r3, 8004014 <__smakebuf_r+0x74>
 8003ffc:	f9b4 100e 	ldrsh.w	r1, [r4, #14]
 8004000:	4630      	mov	r0, r6
 8004002:	f000 fdcd 	bl	8004ba0 <_isatty_r>
 8004006:	b128      	cbz	r0, 8004014 <__smakebuf_r+0x74>
 8004008:	89a3      	ldrh	r3, [r4, #12]
 800400a:	f023 0303 	bic.w	r3, r3, #3
 800400e:	f043 0301 	orr.w	r3, r3, #1
 8004012:	81a3      	strh	r3, [r4, #12]
 8004014:	89a0      	ldrh	r0, [r4, #12]
 8004016:	4305      	orrs	r5, r0
 8004018:	81a5      	strh	r5, [r4, #12]
 800401a:	e7cd      	b.n	8003fb8 <__smakebuf_r+0x18>
 800401c:	08003d8d 	.word	0x08003d8d

08004020 <malloc>:
 8004020:	4b02      	ldr	r3, [pc, #8]	; (800402c <malloc+0xc>)
 8004022:	4601      	mov	r1, r0
 8004024:	6818      	ldr	r0, [r3, #0]
 8004026:	f000 b853 	b.w	80040d0 <_malloc_r>
 800402a:	bf00      	nop
 800402c:	2000005c 	.word	0x2000005c

08004030 <_free_r>:
 8004030:	b537      	push	{r0, r1, r2, r4, r5, lr}
 8004032:	2900      	cmp	r1, #0
 8004034:	d048      	beq.n	80040c8 <_free_r+0x98>
 8004036:	f851 3c04 	ldr.w	r3, [r1, #-4]
 800403a:	9001      	str	r0, [sp, #4]
 800403c:	2b00      	cmp	r3, #0
 800403e:	f1a1 0404 	sub.w	r4, r1, #4
 8004042:	bfb8      	it	lt
 8004044:	18e4      	addlt	r4, r4, r3
 8004046:	f000 fdf5 	bl	8004c34 <__malloc_lock>
 800404a:	4a20      	ldr	r2, [pc, #128]	; (80040cc <_free_r+0x9c>)
 800404c:	9801      	ldr	r0, [sp, #4]
 800404e:	6813      	ldr	r3, [r2, #0]
 8004050:	4615      	mov	r5, r2
 8004052:	b933      	cbnz	r3, 8004062 <_free_r+0x32>
 8004054:	6063      	str	r3, [r4, #4]
 8004056:	6014      	str	r4, [r2, #0]
 8004058:	b003      	add	sp, #12
 800405a:	e8bd 4030 	ldmia.w	sp!, {r4, r5, lr}
 800405e:	f000 bdef 	b.w	8004c40 <__malloc_unlock>
 8004062:	42a3      	cmp	r3, r4
 8004064:	d90b      	bls.n	800407e <_free_r+0x4e>
 8004066:	6821      	ldr	r1, [r4, #0]
 8004068:	1862      	adds	r2, r4, r1
 800406a:	4293      	cmp	r3, r2
 800406c:	bf04      	itt	eq
 800406e:	681a      	ldreq	r2, [r3, #0]
 8004070:	685b      	ldreq	r3, [r3, #4]
 8004072:	6063      	str	r3, [r4, #4]
 8004074:	bf04      	itt	eq
 8004076:	1852      	addeq	r2, r2, r1
 8004078:	6022      	streq	r2, [r4, #0]
 800407a:	602c      	str	r4, [r5, #0]
 800407c:	e7ec      	b.n	8004058 <_free_r+0x28>
 800407e:	461a      	mov	r2, r3
 8004080:	685b      	ldr	r3, [r3, #4]
 8004082:	b10b      	cbz	r3, 8004088 <_free_r+0x58>
 8004084:	42a3      	cmp	r3, r4
 8004086:	d9fa      	bls.n	800407e <_free_r+0x4e>
 8004088:	6811      	ldr	r1, [r2, #0]
 800408a:	1855      	adds	r5, r2, r1
 800408c:	42a5      	cmp	r5, r4
 800408e:	d10b      	bne.n	80040a8 <_free_r+0x78>
 8004090:	6824      	ldr	r4, [r4, #0]
 8004092:	4421      	add	r1, r4
 8004094:	1854      	adds	r4, r2, r1
 8004096:	42a3      	cmp	r3, r4
 8004098:	6011      	str	r1, [r2, #0]
 800409a:	d1dd      	bne.n	8004058 <_free_r+0x28>
 800409c:	681c      	ldr	r4, [r3, #0]
 800409e:	685b      	ldr	r3, [r3, #4]
 80040a0:	6053      	str	r3, [r2, #4]
 80040a2:	4421      	add	r1, r4
 80040a4:	6011      	str	r1, [r2, #0]
 80040a6:	e7d7      	b.n	8004058 <_free_r+0x28>
 80040a8:	d902      	bls.n	80040b0 <_free_r+0x80>
 80040aa:	230c      	movs	r3, #12
 80040ac:	6003      	str	r3, [r0, #0]
 80040ae:	e7d3      	b.n	8004058 <_free_r+0x28>
 80040b0:	6825      	ldr	r5, [r4, #0]
 80040b2:	1961      	adds	r1, r4, r5
 80040b4:	428b      	cmp	r3, r1
 80040b6:	bf04      	itt	eq
 80040b8:	6819      	ldreq	r1, [r3, #0]
 80040ba:	685b      	ldreq	r3, [r3, #4]
 80040bc:	6063      	str	r3, [r4, #4]
 80040be:	bf04      	itt	eq
 80040c0:	1949      	addeq	r1, r1, r5
 80040c2:	6021      	streq	r1, [r4, #0]
 80040c4:	6054      	str	r4, [r2, #4]
 80040c6:	e7c7      	b.n	8004058 <_free_r+0x28>
 80040c8:	b003      	add	sp, #12
 80040ca:	bd30      	pop	{r4, r5, pc}
 80040cc:	20000610 	.word	0x20000610

080040d0 <_malloc_r>:
 80040d0:	b5f8      	push	{r3, r4, r5, r6, r7, lr}
 80040d2:	1ccd      	adds	r5, r1, #3
 80040d4:	f025 0503 	bic.w	r5, r5, #3
 80040d8:	3508      	adds	r5, #8
 80040da:	2d0c      	cmp	r5, #12
 80040dc:	bf38      	it	cc
 80040de:	250c      	movcc	r5, #12
 80040e0:	2d00      	cmp	r5, #0
 80040e2:	4606      	mov	r6, r0
 80040e4:	db01      	blt.n	80040ea <_malloc_r+0x1a>
 80040e6:	42a9      	cmp	r1, r5
 80040e8:	d903      	bls.n	80040f2 <_malloc_r+0x22>
 80040ea:	230c      	movs	r3, #12
 80040ec:	6033      	str	r3, [r6, #0]
 80040ee:	2000      	movs	r0, #0
 80040f0:	bdf8      	pop	{r3, r4, r5, r6, r7, pc}
 80040f2:	f000 fd9f 	bl	8004c34 <__malloc_lock>
 80040f6:	4921      	ldr	r1, [pc, #132]	; (800417c <_malloc_r+0xac>)
 80040f8:	680a      	ldr	r2, [r1, #0]
 80040fa:	4614      	mov	r4, r2
 80040fc:	b99c      	cbnz	r4, 8004126 <_malloc_r+0x56>
 80040fe:	4f20      	ldr	r7, [pc, #128]	; (8004180 <_malloc_r+0xb0>)
 8004100:	683b      	ldr	r3, [r7, #0]
 8004102:	b923      	cbnz	r3, 800410e <_malloc_r+0x3e>
 8004104:	4621      	mov	r1, r4
 8004106:	4630      	mov	r0, r6
 8004108:	f000 fcce 	bl	8004aa8 <_sbrk_r>
 800410c:	6038      	str	r0, [r7, #0]
 800410e:	4629      	mov	r1, r5
 8004110:	4630      	mov	r0, r6
 8004112:	f000 fcc9 	bl	8004aa8 <_sbrk_r>
 8004116:	1c43      	adds	r3, r0, #1
 8004118:	d123      	bne.n	8004162 <_malloc_r+0x92>
 800411a:	230c      	movs	r3, #12
 800411c:	6033      	str	r3, [r6, #0]
 800411e:	4630      	mov	r0, r6
 8004120:	f000 fd8e 	bl	8004c40 <__malloc_unlock>
 8004124:	e7e3      	b.n	80040ee <_malloc_r+0x1e>
 8004126:	6823      	ldr	r3, [r4, #0]
 8004128:	1b5b      	subs	r3, r3, r5
 800412a:	d417      	bmi.n	800415c <_malloc_r+0x8c>
 800412c:	2b0b      	cmp	r3, #11
 800412e:	d903      	bls.n	8004138 <_malloc_r+0x68>
 8004130:	6023      	str	r3, [r4, #0]
 8004132:	441c      	add	r4, r3
 8004134:	6025      	str	r5, [r4, #0]
 8004136:	e004      	b.n	8004142 <_malloc_r+0x72>
 8004138:	6863      	ldr	r3, [r4, #4]
 800413a:	42a2      	cmp	r2, r4
 800413c:	bf0c      	ite	eq
 800413e:	600b      	streq	r3, [r1, #0]
 8004140:	6053      	strne	r3, [r2, #4]
 8004142:	4630      	mov	r0, r6
 8004144:	f000 fd7c 	bl	8004c40 <__malloc_unlock>
 8004148:	f104 000b 	add.w	r0, r4, #11
 800414c:	1d23      	adds	r3, r4, #4
 800414e:	f020 0007 	bic.w	r0, r0, #7
 8004152:	1ac2      	subs	r2, r0, r3
 8004154:	d0cc      	beq.n	80040f0 <_malloc_r+0x20>
 8004156:	1a1b      	subs	r3, r3, r0
 8004158:	50a3      	str	r3, [r4, r2]
 800415a:	e7c9      	b.n	80040f0 <_malloc_r+0x20>
 800415c:	4622      	mov	r2, r4
 800415e:	6864      	ldr	r4, [r4, #4]
 8004160:	e7cc      	b.n	80040fc <_malloc_r+0x2c>
 8004162:	1cc4      	adds	r4, r0, #3
 8004164:	f024 0403 	bic.w	r4, r4, #3
 8004168:	42a0      	cmp	r0, r4
 800416a:	d0e3      	beq.n	8004134 <_malloc_r+0x64>
 800416c:	1a21      	subs	r1, r4, r0
 800416e:	4630      	mov	r0, r6
 8004170:	f000 fc9a 	bl	8004aa8 <_sbrk_r>
 8004174:	3001      	adds	r0, #1
 8004176:	d1dd      	bne.n	8004134 <_malloc_r+0x64>
 8004178:	e7cf      	b.n	800411a <_malloc_r+0x4a>
 800417a:	bf00      	nop
 800417c:	20000610 	.word	0x20000610
 8004180:	20000614 	.word	0x20000614

08004184 <__ssputs_r>:
 8004184:	e92d 47f0 	stmdb	sp!, {r4, r5, r6, r7, r8, r9, sl, lr}
 8004188:	688e      	ldr	r6, [r1, #8]
 800418a:	429e      	cmp	r6, r3
 800418c:	4682      	mov	sl, r0
 800418e:	460c      	mov	r4, r1
 8004190:	4690      	mov	r8, r2
 8004192:	461f      	mov	r7, r3
 8004194:	d838      	bhi.n	8004208 <__ssputs_r+0x84>
 8004196:	898a      	ldrh	r2, [r1, #12]
 8004198:	f412 6f90 	tst.w	r2, #1152	; 0x480
 800419c:	d032      	beq.n	8004204 <__ssputs_r+0x80>
 800419e:	6825      	ldr	r5, [r4, #0]
 80041a0:	6909      	ldr	r1, [r1, #16]
 80041a2:	eba5 0901 	sub.w	r9, r5, r1
 80041a6:	6965      	ldr	r5, [r4, #20]
 80041a8:	eb05 0545 	add.w	r5, r5, r5, lsl #1
 80041ac:	eb05 75d5 	add.w	r5, r5, r5, lsr #31
 80041b0:	3301      	adds	r3, #1
 80041b2:	444b      	add	r3, r9
 80041b4:	106d      	asrs	r5, r5, #1
 80041b6:	429d      	cmp	r5, r3
 80041b8:	bf38      	it	cc
 80041ba:	461d      	movcc	r5, r3
 80041bc:	0553      	lsls	r3, r2, #21
 80041be:	d531      	bpl.n	8004224 <__ssputs_r+0xa0>
 80041c0:	4629      	mov	r1, r5
 80041c2:	f7ff ff85 	bl	80040d0 <_malloc_r>
 80041c6:	4606      	mov	r6, r0
 80041c8:	b950      	cbnz	r0, 80041e0 <__ssputs_r+0x5c>
 80041ca:	230c      	movs	r3, #12
 80041cc:	f8ca 3000 	str.w	r3, [sl]
 80041d0:	89a3      	ldrh	r3, [r4, #12]
 80041d2:	f043 0340 	orr.w	r3, r3, #64	; 0x40
 80041d6:	81a3      	strh	r3, [r4, #12]
 80041d8:	f04f 30ff 	mov.w	r0, #4294967295
 80041dc:	e8bd 87f0 	ldmia.w	sp!, {r4, r5, r6, r7, r8, r9, sl, pc}
 80041e0:	6921      	ldr	r1, [r4, #16]
 80041e2:	464a      	mov	r2, r9
 80041e4:	f000 fcfe 	bl	8004be4 <memcpy>
 80041e8:	89a3      	ldrh	r3, [r4, #12]
 80041ea:	f423 6390 	bic.w	r3, r3, #1152	; 0x480
 80041ee:	f043 0380 	orr.w	r3, r3, #128	; 0x80
 80041f2:	81a3      	strh	r3, [r4, #12]
 80041f4:	6126      	str	r6, [r4, #16]
 80041f6:	6165      	str	r5, [r4, #20]
 80041f8:	444e      	add	r6, r9
 80041fa:	eba5 0509 	sub.w	r5, r5, r9
 80041fe:	6026      	str	r6, [r4, #0]
 8004200:	60a5      	str	r5, [r4, #8]
 8004202:	463e      	mov	r6, r7
 8004204:	42be      	cmp	r6, r7
 8004206:	d900      	bls.n	800420a <__ssputs_r+0x86>
 8004208:	463e      	mov	r6, r7
 800420a:	4632      	mov	r2, r6
 800420c:	6820      	ldr	r0, [r4, #0]
 800420e:	4641      	mov	r1, r8
 8004210:	f000 fcf6 	bl	8004c00 <memmove>
 8004214:	68a3      	ldr	r3, [r4, #8]
 8004216:	6822      	ldr	r2, [r4, #0]
 8004218:	1b9b      	subs	r3, r3, r6
 800421a:	4432      	add	r2, r6
 800421c:	60a3      	str	r3, [r4, #8]
 800421e:	6022      	str	r2, [r4, #0]
 8004220:	2000      	movs	r0, #0
 8004222:	e7db      	b.n	80041dc <__ssputs_r+0x58>
 8004224:	462a      	mov	r2, r5
 8004226:	f000 fd11 	bl	8004c4c <_realloc_r>
 800422a:	4606      	mov	r6, r0
 800422c:	2800      	cmp	r0, #0
 800422e:	d1e1      	bne.n	80041f4 <__ssputs_r+0x70>
 8004230:	6921      	ldr	r1, [r4, #16]
 8004232:	4650      	mov	r0, sl
 8004234:	f7ff fefc 	bl	8004030 <_free_r>
 8004238:	e7c7      	b.n	80041ca <__ssputs_r+0x46>
	...

0800423c <_svfiprintf_r>:
 800423c:	e92d 4ff0 	stmdb	sp!, {r4, r5, r6, r7, r8, r9, sl, fp, lr}
 8004240:	4698      	mov	r8, r3
 8004242:	898b      	ldrh	r3, [r1, #12]
 8004244:	061b      	lsls	r3, r3, #24
 8004246:	b09d      	sub	sp, #116	; 0x74
 8004248:	4607      	mov	r7, r0
 800424a:	460d      	mov	r5, r1
 800424c:	4614      	mov	r4, r2
 800424e:	d50e      	bpl.n	800426e <_svfiprintf_r+0x32>
 8004250:	690b      	ldr	r3, [r1, #16]
 8004252:	b963      	cbnz	r3, 800426e <_svfiprintf_r+0x32>
 8004254:	2140      	movs	r1, #64	; 0x40
 8004256:	f7ff ff3b 	bl	80040d0 <_malloc_r>
 800425a:	6028      	str	r0, [r5, #0]
 800425c:	6128      	str	r0, [r5, #16]
 800425e:	b920      	cbnz	r0, 800426a <_svfiprintf_r+0x2e>
 8004260:	230c      	movs	r3, #12
 8004262:	603b      	str	r3, [r7, #0]
 8004264:	f04f 30ff 	mov.w	r0, #4294967295
 8004268:	e0d1      	b.n	800440e <_svfiprintf_r+0x1d2>
 800426a:	2340      	movs	r3, #64	; 0x40
 800426c:	616b      	str	r3, [r5, #20]
 800426e:	2300      	movs	r3, #0
 8004270:	9309      	str	r3, [sp, #36]	; 0x24
 8004272:	2320      	movs	r3, #32
 8004274:	f88d 3029 	strb.w	r3, [sp, #41]	; 0x29
 8004278:	f8cd 800c 	str.w	r8, [sp, #12]
 800427c:	2330      	movs	r3, #48	; 0x30
 800427e:	f8df 81a8 	ldr.w	r8, [pc, #424]	; 8004428 <_svfiprintf_r+0x1ec>
 8004282:	f88d 302a 	strb.w	r3, [sp, #42]	; 0x2a
 8004286:	f04f 0901 	mov.w	r9, #1
 800428a:	4623      	mov	r3, r4
 800428c:	469a      	mov	sl, r3
 800428e:	f813 2b01 	ldrb.w	r2, [r3], #1
 8004292:	b10a      	cbz	r2, 8004298 <_svfiprintf_r+0x5c>
 8004294:	2a25      	cmp	r2, #37	; 0x25
 8004296:	d1f9      	bne.n	800428c <_svfiprintf_r+0x50>
 8004298:	ebba 0b04 	subs.w	fp, sl, r4
 800429c:	d00b      	beq.n	80042b6 <_svfiprintf_r+0x7a>
 800429e:	465b      	mov	r3, fp
 80042a0:	4622      	mov	r2, r4
 80042a2:	4629      	mov	r1, r5
 80042a4:	4638      	mov	r0, r7
 80042a6:	f7ff ff6d 	bl	8004184 <__ssputs_r>
 80042aa:	3001      	adds	r0, #1
 80042ac:	f000 80aa 	beq.w	8004404 <_svfiprintf_r+0x1c8>
 80042b0:	9a09      	ldr	r2, [sp, #36]	; 0x24
 80042b2:	445a      	add	r2, fp
 80042b4:	9209      	str	r2, [sp, #36]	; 0x24
 80042b6:	f89a 3000 	ldrb.w	r3, [sl]
 80042ba:	2b00      	cmp	r3, #0
 80042bc:	f000 80a2 	beq.w	8004404 <_svfiprintf_r+0x1c8>
 80042c0:	2300      	movs	r3, #0
 80042c2:	f04f 32ff 	mov.w	r2, #4294967295
 80042c6:	e9cd 2305 	strd	r2, r3, [sp, #20]
 80042ca:	f10a 0a01 	add.w	sl, sl, #1
 80042ce:	9304      	str	r3, [sp, #16]
 80042d0:	9307      	str	r3, [sp, #28]
 80042d2:	f88d 3053 	strb.w	r3, [sp, #83]	; 0x53
 80042d6:	931a      	str	r3, [sp, #104]	; 0x68
 80042d8:	4654      	mov	r4, sl
 80042da:	2205      	movs	r2, #5
 80042dc:	f814 1b01 	ldrb.w	r1, [r4], #1
 80042e0:	4851      	ldr	r0, [pc, #324]	; (8004428 <_svfiprintf_r+0x1ec>)
 80042e2:	f7fb ff75 	bl	80001d0 <memchr>
 80042e6:	9a04      	ldr	r2, [sp, #16]
 80042e8:	b9d8      	cbnz	r0, 8004322 <_svfiprintf_r+0xe6>
 80042ea:	06d0      	lsls	r0, r2, #27
 80042ec:	bf44      	itt	mi
 80042ee:	2320      	movmi	r3, #32
 80042f0:	f88d 3053 	strbmi.w	r3, [sp, #83]	; 0x53
 80042f4:	0711      	lsls	r1, r2, #28
 80042f6:	bf44      	itt	mi
 80042f8:	232b      	movmi	r3, #43	; 0x2b
 80042fa:	f88d 3053 	strbmi.w	r3, [sp, #83]	; 0x53
 80042fe:	f89a 3000 	ldrb.w	r3, [sl]
 8004302:	2b2a      	cmp	r3, #42	; 0x2a
 8004304:	d015      	beq.n	8004332 <_svfiprintf_r+0xf6>
 8004306:	9a07      	ldr	r2, [sp, #28]
 8004308:	4654      	mov	r4, sl
 800430a:	2000      	movs	r0, #0
 800430c:	f04f 0c0a 	mov.w	ip, #10
 8004310:	4621      	mov	r1, r4
 8004312:	f811 3b01 	ldrb.w	r3, [r1], #1
 8004316:	3b30      	subs	r3, #48	; 0x30
 8004318:	2b09      	cmp	r3, #9
 800431a:	d94e      	bls.n	80043ba <_svfiprintf_r+0x17e>
 800431c:	b1b0      	cbz	r0, 800434c <_svfiprintf_r+0x110>
 800431e:	9207      	str	r2, [sp, #28]
 8004320:	e014      	b.n	800434c <_svfiprintf_r+0x110>
 8004322:	eba0 0308 	sub.w	r3, r0, r8
 8004326:	fa09 f303 	lsl.w	r3, r9, r3
 800432a:	4313      	orrs	r3, r2
 800432c:	9304      	str	r3, [sp, #16]
 800432e:	46a2      	mov	sl, r4
 8004330:	e7d2      	b.n	80042d8 <_svfiprintf_r+0x9c>
 8004332:	9b03      	ldr	r3, [sp, #12]
 8004334:	1d19      	adds	r1, r3, #4
 8004336:	681b      	ldr	r3, [r3, #0]
 8004338:	9103      	str	r1, [sp, #12]
 800433a:	2b00      	cmp	r3, #0
 800433c:	bfbb      	ittet	lt
 800433e:	425b      	neglt	r3, r3
 8004340:	f042 0202 	orrlt.w	r2, r2, #2
 8004344:	9307      	strge	r3, [sp, #28]
 8004346:	9307      	strlt	r3, [sp, #28]
 8004348:	bfb8      	it	lt
 800434a:	9204      	strlt	r2, [sp, #16]
 800434c:	7823      	ldrb	r3, [r4, #0]
 800434e:	2b2e      	cmp	r3, #46	; 0x2e
 8004350:	d10c      	bne.n	800436c <_svfiprintf_r+0x130>
 8004352:	7863      	ldrb	r3, [r4, #1]
 8004354:	2b2a      	cmp	r3, #42	; 0x2a
 8004356:	d135      	bne.n	80043c4 <_svfiprintf_r+0x188>
 8004358:	9b03      	ldr	r3, [sp, #12]
 800435a:	1d1a      	adds	r2, r3, #4
 800435c:	681b      	ldr	r3, [r3, #0]
 800435e:	9203      	str	r2, [sp, #12]
 8004360:	2b00      	cmp	r3, #0
 8004362:	bfb8      	it	lt
 8004364:	f04f 33ff 	movlt.w	r3, #4294967295
 8004368:	3402      	adds	r4, #2
 800436a:	9305      	str	r3, [sp, #20]
 800436c:	f8df a0c8 	ldr.w	sl, [pc, #200]	; 8004438 <_svfiprintf_r+0x1fc>
 8004370:	7821      	ldrb	r1, [r4, #0]
 8004372:	2203      	movs	r2, #3
 8004374:	4650      	mov	r0, sl
 8004376:	f7fb ff2b 	bl	80001d0 <memchr>
 800437a:	b140      	cbz	r0, 800438e <_svfiprintf_r+0x152>
 800437c:	2340      	movs	r3, #64	; 0x40
 800437e:	eba0 000a 	sub.w	r0, r0, sl
 8004382:	fa03 f000 	lsl.w	r0, r3, r0
 8004386:	9b04      	ldr	r3, [sp, #16]
 8004388:	4303      	orrs	r3, r0
 800438a:	3401      	adds	r4, #1
 800438c:	9304      	str	r3, [sp, #16]
 800438e:	f814 1b01 	ldrb.w	r1, [r4], #1
 8004392:	4826      	ldr	r0, [pc, #152]	; (800442c <_svfiprintf_r+0x1f0>)
 8004394:	f88d 1028 	strb.w	r1, [sp, #40]	; 0x28
 8004398:	2206      	movs	r2, #6
 800439a:	f7fb ff19 	bl	80001d0 <memchr>
 800439e:	2800      	cmp	r0, #0
 80043a0:	d038      	beq.n	8004414 <_svfiprintf_r+0x1d8>
 80043a2:	4b23      	ldr	r3, [pc, #140]	; (8004430 <_svfiprintf_r+0x1f4>)
 80043a4:	bb1b      	cbnz	r3, 80043ee <_svfiprintf_r+0x1b2>
 80043a6:	9b03      	ldr	r3, [sp, #12]
 80043a8:	3307      	adds	r3, #7
 80043aa:	f023 0307 	bic.w	r3, r3, #7
 80043ae:	3308      	adds	r3, #8
 80043b0:	9303      	str	r3, [sp, #12]
 80043b2:	9b09      	ldr	r3, [sp, #36]	; 0x24
 80043b4:	4433      	add	r3, r6
 80043b6:	9309      	str	r3, [sp, #36]	; 0x24
 80043b8:	e767      	b.n	800428a <_svfiprintf_r+0x4e>
 80043ba:	fb0c 3202 	mla	r2, ip, r2, r3
 80043be:	460c      	mov	r4, r1
 80043c0:	2001      	movs	r0, #1
 80043c2:	e7a5      	b.n	8004310 <_svfiprintf_r+0xd4>
 80043c4:	2300      	movs	r3, #0
 80043c6:	3401      	adds	r4, #1
 80043c8:	9305      	str	r3, [sp, #20]
 80043ca:	4619      	mov	r1, r3
 80043cc:	f04f 0c0a 	mov.w	ip, #10
 80043d0:	4620      	mov	r0, r4
 80043d2:	f810 2b01 	ldrb.w	r2, [r0], #1
 80043d6:	3a30      	subs	r2, #48	; 0x30
 80043d8:	2a09      	cmp	r2, #9
 80043da:	d903      	bls.n	80043e4 <_svfiprintf_r+0x1a8>
 80043dc:	2b00      	cmp	r3, #0
 80043de:	d0c5      	beq.n	800436c <_svfiprintf_r+0x130>
 80043e0:	9105      	str	r1, [sp, #20]
 80043e2:	e7c3      	b.n	800436c <_svfiprintf_r+0x130>
 80043e4:	fb0c 2101 	mla	r1, ip, r1, r2
 80043e8:	4604      	mov	r4, r0
 80043ea:	2301      	movs	r3, #1
 80043ec:	e7f0      	b.n	80043d0 <_svfiprintf_r+0x194>
 80043ee:	ab03      	add	r3, sp, #12
 80043f0:	9300      	str	r3, [sp, #0]
 80043f2:	462a      	mov	r2, r5
 80043f4:	4b0f      	ldr	r3, [pc, #60]	; (8004434 <_svfiprintf_r+0x1f8>)
 80043f6:	a904      	add	r1, sp, #16
 80043f8:	4638      	mov	r0, r7
 80043fa:	f3af 8000 	nop.w
 80043fe:	1c42      	adds	r2, r0, #1
 8004400:	4606      	mov	r6, r0
 8004402:	d1d6      	bne.n	80043b2 <_svfiprintf_r+0x176>
 8004404:	89ab      	ldrh	r3, [r5, #12]
 8004406:	065b      	lsls	r3, r3, #25
 8004408:	f53f af2c 	bmi.w	8004264 <_svfiprintf_r+0x28>
 800440c:	9809      	ldr	r0, [sp, #36]	; 0x24
 800440e:	b01d      	add	sp, #116	; 0x74
 8004410:	e8bd 8ff0 	ldmia.w	sp!, {r4, r5, r6, r7, r8, r9, sl, fp, pc}
 8004414:	ab03      	add	r3, sp, #12
 8004416:	9300      	str	r3, [sp, #0]
 8004418:	462a      	mov	r2, r5
 800441a:	4b06      	ldr	r3, [pc, #24]	; (8004434 <_svfiprintf_r+0x1f8>)
 800441c:	a904      	add	r1, sp, #16
 800441e:	4638      	mov	r0, r7
 8004420:	f000 f9d4 	bl	80047cc <_printf_i>
 8004424:	e7eb      	b.n	80043fe <_svfiprintf_r+0x1c2>
 8004426:	bf00      	nop
 8004428:	08005590 	.word	0x08005590
 800442c:	0800559a 	.word	0x0800559a
 8004430:	00000000 	.word	0x00000000
 8004434:	08004185 	.word	0x08004185
 8004438:	08005596 	.word	0x08005596

0800443c <__sfputc_r>:
 800443c:	6893      	ldr	r3, [r2, #8]
 800443e:	3b01      	subs	r3, #1
 8004440:	2b00      	cmp	r3, #0
 8004442:	b410      	push	{r4}
 8004444:	6093      	str	r3, [r2, #8]
 8004446:	da08      	bge.n	800445a <__sfputc_r+0x1e>
 8004448:	6994      	ldr	r4, [r2, #24]
 800444a:	42a3      	cmp	r3, r4
 800444c:	db01      	blt.n	8004452 <__sfputc_r+0x16>
 800444e:	290a      	cmp	r1, #10
 8004450:	d103      	bne.n	800445a <__sfputc_r+0x1e>
 8004452:	f85d 4b04 	ldr.w	r4, [sp], #4
 8004456:	f7ff bad5 	b.w	8003a04 <__swbuf_r>
 800445a:	6813      	ldr	r3, [r2, #0]
 800445c:	1c58      	adds	r0, r3, #1
 800445e:	6010      	str	r0, [r2, #0]
 8004460:	7019      	strb	r1, [r3, #0]
 8004462:	4608      	mov	r0, r1
 8004464:	f85d 4b04 	ldr.w	r4, [sp], #4
 8004468:	4770      	bx	lr

0800446a <__sfputs_r>:
 800446a:	b5f8      	push	{r3, r4, r5, r6, r7, lr}
 800446c:	4606      	mov	r6, r0
 800446e:	460f      	mov	r7, r1
 8004470:	4614      	mov	r4, r2
 8004472:	18d5      	adds	r5, r2, r3
 8004474:	42ac      	cmp	r4, r5
 8004476:	d101      	bne.n	800447c <__sfputs_r+0x12>
 8004478:	2000      	movs	r0, #0
 800447a:	e007      	b.n	800448c <__sfputs_r+0x22>
 800447c:	f814 1b01 	ldrb.w	r1, [r4], #1
 8004480:	463a      	mov	r2, r7
 8004482:	4630      	mov	r0, r6
 8004484:	f7ff ffda 	bl	800443c <__sfputc_r>
 8004488:	1c43      	adds	r3, r0, #1
 800448a:	d1f3      	bne.n	8004474 <__sfputs_r+0xa>
 800448c:	bdf8      	pop	{r3, r4, r5, r6, r7, pc}
	...

08004490 <_vfiprintf_r>:
 8004490:	e92d 4ff0 	stmdb	sp!, {r4, r5, r6, r7, r8, r9, sl, fp, lr}
 8004494:	460d      	mov	r5, r1
 8004496:	b09d      	sub	sp, #116	; 0x74
 8004498:	4614      	mov	r4, r2
 800449a:	4698      	mov	r8, r3
 800449c:	4606      	mov	r6, r0
 800449e:	b118      	cbz	r0, 80044a8 <_vfiprintf_r+0x18>
 80044a0:	6983      	ldr	r3, [r0, #24]
 80044a2:	b90b      	cbnz	r3, 80044a8 <_vfiprintf_r+0x18>
 80044a4:	f7ff fca6 	bl	8003df4 <__sinit>
 80044a8:	4b89      	ldr	r3, [pc, #548]	; (80046d0 <_vfiprintf_r+0x240>)
 80044aa:	429d      	cmp	r5, r3
 80044ac:	d11b      	bne.n	80044e6 <_vfiprintf_r+0x56>
 80044ae:	6875      	ldr	r5, [r6, #4]
 80044b0:	6e6b      	ldr	r3, [r5, #100]	; 0x64
 80044b2:	07d9      	lsls	r1, r3, #31
 80044b4:	d405      	bmi.n	80044c2 <_vfiprintf_r+0x32>
 80044b6:	89ab      	ldrh	r3, [r5, #12]
 80044b8:	059a      	lsls	r2, r3, #22
 80044ba:	d402      	bmi.n	80044c2 <_vfiprintf_r+0x32>
 80044bc:	6da8      	ldr	r0, [r5, #88]	; 0x58
 80044be:	f7ff fd49 	bl	8003f54 <__retarget_lock_acquire_recursive>
 80044c2:	89ab      	ldrh	r3, [r5, #12]
 80044c4:	071b      	lsls	r3, r3, #28
 80044c6:	d501      	bpl.n	80044cc <_vfiprintf_r+0x3c>
 80044c8:	692b      	ldr	r3, [r5, #16]
 80044ca:	b9eb      	cbnz	r3, 8004508 <_vfiprintf_r+0x78>
 80044cc:	4629      	mov	r1, r5
 80044ce:	4630      	mov	r0, r6
 80044d0:	f7ff faea 	bl	8003aa8 <__swsetup_r>
 80044d4:	b1c0      	cbz	r0, 8004508 <_vfiprintf_r+0x78>
 80044d6:	6e6b      	ldr	r3, [r5, #100]	; 0x64
 80044d8:	07dc      	lsls	r4, r3, #31
 80044da:	d50e      	bpl.n	80044fa <_vfiprintf_r+0x6a>
 80044dc:	f04f 30ff 	mov.w	r0, #4294967295
 80044e0:	b01d      	add	sp, #116	; 0x74
 80044e2:	e8bd 8ff0 	ldmia.w	sp!, {r4, r5, r6, r7, r8, r9, sl, fp, pc}
 80044e6:	4b7b      	ldr	r3, [pc, #492]	; (80046d4 <_vfiprintf_r+0x244>)
 80044e8:	429d      	cmp	r5, r3
 80044ea:	d101      	bne.n	80044f0 <_vfiprintf_r+0x60>
 80044ec:	68b5      	ldr	r5, [r6, #8]
 80044ee:	e7df      	b.n	80044b0 <_vfiprintf_r+0x20>
 80044f0:	4b79      	ldr	r3, [pc, #484]	; (80046d8 <_vfiprintf_r+0x248>)
 80044f2:	429d      	cmp	r5, r3
 80044f4:	bf08      	it	eq
 80044f6:	68f5      	ldreq	r5, [r6, #12]
 80044f8:	e7da      	b.n	80044b0 <_vfiprintf_r+0x20>
 80044fa:	89ab      	ldrh	r3, [r5, #12]
 80044fc:	0598      	lsls	r0, r3, #22
 80044fe:	d4ed      	bmi.n	80044dc <_vfiprintf_r+0x4c>
 8004500:	6da8      	ldr	r0, [r5, #88]	; 0x58
 8004502:	f7ff fd28 	bl	8003f56 <__retarget_lock_release_recursive>
 8004506:	e7e9      	b.n	80044dc <_vfiprintf_r+0x4c>
 8004508:	2300      	movs	r3, #0
 800450a:	9309      	str	r3, [sp, #36]	; 0x24
 800450c:	2320      	movs	r3, #32
 800450e:	f88d 3029 	strb.w	r3, [sp, #41]	; 0x29
 8004512:	f8cd 800c 	str.w	r8, [sp, #12]
 8004516:	2330      	movs	r3, #48	; 0x30
 8004518:	f8df 81c0 	ldr.w	r8, [pc, #448]	; 80046dc <_vfiprintf_r+0x24c>
 800451c:	f88d 302a 	strb.w	r3, [sp, #42]	; 0x2a
 8004520:	f04f 0901 	mov.w	r9, #1
 8004524:	4623      	mov	r3, r4
 8004526:	469a      	mov	sl, r3
 8004528:	f813 2b01 	ldrb.w	r2, [r3], #1
 800452c:	b10a      	cbz	r2, 8004532 <_vfiprintf_r+0xa2>
 800452e:	2a25      	cmp	r2, #37	; 0x25
 8004530:	d1f9      	bne.n	8004526 <_vfiprintf_r+0x96>
 8004532:	ebba 0b04 	subs.w	fp, sl, r4
 8004536:	d00b      	beq.n	8004550 <_vfiprintf_r+0xc0>
 8004538:	465b      	mov	r3, fp
 800453a:	4622      	mov	r2, r4
 800453c:	4629      	mov	r1, r5
 800453e:	4630      	mov	r0, r6
 8004540:	f7ff ff93 	bl	800446a <__sfputs_r>
 8004544:	3001      	adds	r0, #1
 8004546:	f000 80aa 	beq.w	800469e <_vfiprintf_r+0x20e>
 800454a:	9a09      	ldr	r2, [sp, #36]	; 0x24
 800454c:	445a      	add	r2, fp
 800454e:	9209      	str	r2, [sp, #36]	; 0x24
 8004550:	f89a 3000 	ldrb.w	r3, [sl]
 8004554:	2b00      	cmp	r3, #0
 8004556:	f000 80a2 	beq.w	800469e <_vfiprintf_r+0x20e>
 800455a:	2300      	movs	r3, #0
 800455c:	f04f 32ff 	mov.w	r2, #4294967295
 8004560:	e9cd 2305 	strd	r2, r3, [sp, #20]
 8004564:	f10a 0a01 	add.w	sl, sl, #1
 8004568:	9304      	str	r3, [sp, #16]
 800456a:	9307      	str	r3, [sp, #28]
 800456c:	f88d 3053 	strb.w	r3, [sp, #83]	; 0x53
 8004570:	931a      	str	r3, [sp, #104]	; 0x68
 8004572:	4654      	mov	r4, sl
 8004574:	2205      	movs	r2, #5
 8004576:	f814 1b01 	ldrb.w	r1, [r4], #1
 800457a:	4858      	ldr	r0, [pc, #352]	; (80046dc <_vfiprintf_r+0x24c>)
 800457c:	f7fb fe28 	bl	80001d0 <memchr>
 8004580:	9a04      	ldr	r2, [sp, #16]
 8004582:	b9d8      	cbnz	r0, 80045bc <_vfiprintf_r+0x12c>
 8004584:	06d1      	lsls	r1, r2, #27
 8004586:	bf44      	itt	mi
 8004588:	2320      	movmi	r3, #32
 800458a:	f88d 3053 	strbmi.w	r3, [sp, #83]	; 0x53
 800458e:	0713      	lsls	r3, r2, #28
 8004590:	bf44      	itt	mi
 8004592:	232b      	movmi	r3, #43	; 0x2b
 8004594:	f88d 3053 	strbmi.w	r3, [sp, #83]	; 0x53
 8004598:	f89a 3000 	ldrb.w	r3, [sl]
 800459c:	2b2a      	cmp	r3, #42	; 0x2a
 800459e:	d015      	beq.n	80045cc <_vfiprintf_r+0x13c>
 80045a0:	9a07      	ldr	r2, [sp, #28]
 80045a2:	4654      	mov	r4, sl
 80045a4:	2000      	movs	r0, #0
 80045a6:	f04f 0c0a 	mov.w	ip, #10
 80045aa:	4621      	mov	r1, r4
 80045ac:	f811 3b01 	ldrb.w	r3, [r1], #1
 80045b0:	3b30      	subs	r3, #48	; 0x30
 80045b2:	2b09      	cmp	r3, #9
 80045b4:	d94e      	bls.n	8004654 <_vfiprintf_r+0x1c4>
 80045b6:	b1b0      	cbz	r0, 80045e6 <_vfiprintf_r+0x156>
 80045b8:	9207      	str	r2, [sp, #28]
 80045ba:	e014      	b.n	80045e6 <_vfiprintf_r+0x156>
 80045bc:	eba0 0308 	sub.w	r3, r0, r8
 80045c0:	fa09 f303 	lsl.w	r3, r9, r3
 80045c4:	4313      	orrs	r3, r2
 80045c6:	9304      	str	r3, [sp, #16]
 80045c8:	46a2      	mov	sl, r4
 80045ca:	e7d2      	b.n	8004572 <_vfiprintf_r+0xe2>
 80045cc:	9b03      	ldr	r3, [sp, #12]
 80045ce:	1d19      	adds	r1, r3, #4
 80045d0:	681b      	ldr	r3, [r3, #0]
 80045d2:	9103      	str	r1, [sp, #12]
 80045d4:	2b00      	cmp	r3, #0
 80045d6:	bfbb      	ittet	lt
 80045d8:	425b      	neglt	r3, r3
 80045da:	f042 0202 	orrlt.w	r2, r2, #2
 80045de:	9307      	strge	r3, [sp, #28]
 80045e0:	9307      	strlt	r3, [sp, #28]
 80045e2:	bfb8      	it	lt
 80045e4:	9204      	strlt	r2, [sp, #16]
 80045e6:	7823      	ldrb	r3, [r4, #0]
 80045e8:	2b2e      	cmp	r3, #46	; 0x2e
 80045ea:	d10c      	bne.n	8004606 <_vfiprintf_r+0x176>
 80045ec:	7863      	ldrb	r3, [r4, #1]
 80045ee:	2b2a      	cmp	r3, #42	; 0x2a
 80045f0:	d135      	bne.n	800465e <_vfiprintf_r+0x1ce>
 80045f2:	9b03      	ldr	r3, [sp, #12]
 80045f4:	1d1a      	adds	r2, r3, #4
 80045f6:	681b      	ldr	r3, [r3, #0]
 80045f8:	9203      	str	r2, [sp, #12]
 80045fa:	2b00      	cmp	r3, #0
 80045fc:	bfb8      	it	lt
 80045fe:	f04f 33ff 	movlt.w	r3, #4294967295
 8004602:	3402      	adds	r4, #2
 8004604:	9305      	str	r3, [sp, #20]
 8004606:	f8df a0e4 	ldr.w	sl, [pc, #228]	; 80046ec <_vfiprintf_r+0x25c>
 800460a:	7821      	ldrb	r1, [r4, #0]
 800460c:	2203      	movs	r2, #3
 800460e:	4650      	mov	r0, sl
 8004610:	f7fb fdde 	bl	80001d0 <memchr>
 8004614:	b140      	cbz	r0, 8004628 <_vfiprintf_r+0x198>
 8004616:	2340      	movs	r3, #64	; 0x40
 8004618:	eba0 000a 	sub.w	r0, r0, sl
 800461c:	fa03 f000 	lsl.w	r0, r3, r0
 8004620:	9b04      	ldr	r3, [sp, #16]
 8004622:	4303      	orrs	r3, r0
 8004624:	3401      	adds	r4, #1
 8004626:	9304      	str	r3, [sp, #16]
 8004628:	f814 1b01 	ldrb.w	r1, [r4], #1
 800462c:	482c      	ldr	r0, [pc, #176]	; (80046e0 <_vfiprintf_r+0x250>)
 800462e:	f88d 1028 	strb.w	r1, [sp, #40]	; 0x28
 8004632:	2206      	movs	r2, #6
 8004634:	f7fb fdcc 	bl	80001d0 <memchr>
 8004638:	2800      	cmp	r0, #0
 800463a:	d03f      	beq.n	80046bc <_vfiprintf_r+0x22c>
 800463c:	4b29      	ldr	r3, [pc, #164]	; (80046e4 <_vfiprintf_r+0x254>)
 800463e:	bb1b      	cbnz	r3, 8004688 <_vfiprintf_r+0x1f8>
 8004640:	9b03      	ldr	r3, [sp, #12]
 8004642:	3307      	adds	r3, #7
 8004644:	f023 0307 	bic.w	r3, r3, #7
 8004648:	3308      	adds	r3, #8
 800464a:	9303      	str	r3, [sp, #12]
 800464c:	9b09      	ldr	r3, [sp, #36]	; 0x24
 800464e:	443b      	add	r3, r7
 8004650:	9309      	str	r3, [sp, #36]	; 0x24
 8004652:	e767      	b.n	8004524 <_vfiprintf_r+0x94>
 8004654:	fb0c 3202 	mla	r2, ip, r2, r3
 8004658:	460c      	mov	r4, r1
 800465a:	2001      	movs	r0, #1
 800465c:	e7a5      	b.n	80045aa <_vfiprintf_r+0x11a>
 800465e:	2300      	movs	r3, #0
 8004660:	3401      	adds	r4, #1
 8004662:	9305      	str	r3, [sp, #20]
 8004664:	4619      	mov	r1, r3
 8004666:	f04f 0c0a 	mov.w	ip, #10
 800466a:	4620      	mov	r0, r4
 800466c:	f810 2b01 	ldrb.w	r2, [r0], #1
 8004670:	3a30      	subs	r2, #48	; 0x30
 8004672:	2a09      	cmp	r2, #9
 8004674:	d903      	bls.n	800467e <_vfiprintf_r+0x1ee>
 8004676:	2b00      	cmp	r3, #0
 8004678:	d0c5      	beq.n	8004606 <_vfiprintf_r+0x176>
 800467a:	9105      	str	r1, [sp, #20]
 800467c:	e7c3      	b.n	8004606 <_vfiprintf_r+0x176>
 800467e:	fb0c 2101 	mla	r1, ip, r1, r2
 8004682:	4604      	mov	r4, r0
 8004684:	2301      	movs	r3, #1
 8004686:	e7f0      	b.n	800466a <_vfiprintf_r+0x1da>
 8004688:	ab03      	add	r3, sp, #12
 800468a:	9300      	str	r3, [sp, #0]
 800468c:	462a      	mov	r2, r5
 800468e:	4b16      	ldr	r3, [pc, #88]	; (80046e8 <_vfiprintf_r+0x258>)
 8004690:	a904      	add	r1, sp, #16
 8004692:	4630      	mov	r0, r6
 8004694:	f3af 8000 	nop.w
 8004698:	4607      	mov	r7, r0
 800469a:	1c78      	adds	r0, r7, #1
 800469c:	d1d6      	bne.n	800464c <_vfiprintf_r+0x1bc>
 800469e:	6e6b      	ldr	r3, [r5, #100]	; 0x64
 80046a0:	07d9      	lsls	r1, r3, #31
 80046a2:	d405      	bmi.n	80046b0 <_vfiprintf_r+0x220>
 80046a4:	89ab      	ldrh	r3, [r5, #12]
 80046a6:	059a      	lsls	r2, r3, #22
 80046a8:	d402      	bmi.n	80046b0 <_vfiprintf_r+0x220>
 80046aa:	6da8      	ldr	r0, [r5, #88]	; 0x58
 80046ac:	f7ff fc53 	bl	8003f56 <__retarget_lock_release_recursive>
 80046b0:	89ab      	ldrh	r3, [r5, #12]
 80046b2:	065b      	lsls	r3, r3, #25
 80046b4:	f53f af12 	bmi.w	80044dc <_vfiprintf_r+0x4c>
 80046b8:	9809      	ldr	r0, [sp, #36]	; 0x24
 80046ba:	e711      	b.n	80044e0 <_vfiprintf_r+0x50>
 80046bc:	ab03      	add	r3, sp, #12
 80046be:	9300      	str	r3, [sp, #0]
 80046c0:	462a      	mov	r2, r5
 80046c2:	4b09      	ldr	r3, [pc, #36]	; (80046e8 <_vfiprintf_r+0x258>)
 80046c4:	a904      	add	r1, sp, #16
 80046c6:	4630      	mov	r0, r6
 80046c8:	f000 f880 	bl	80047cc <_printf_i>
 80046cc:	e7e4      	b.n	8004698 <_vfiprintf_r+0x208>
 80046ce:	bf00      	nop
 80046d0:	08005550 	.word	0x08005550
 80046d4:	08005570 	.word	0x08005570
 80046d8:	08005530 	.word	0x08005530
 80046dc:	08005590 	.word	0x08005590
 80046e0:	0800559a 	.word	0x0800559a
 80046e4:	00000000 	.word	0x00000000
 80046e8:	0800446b 	.word	0x0800446b
 80046ec:	08005596 	.word	0x08005596

080046f0 <_printf_common>:
 80046f0:	e92d 47f0 	stmdb	sp!, {r4, r5, r6, r7, r8, r9, sl, lr}
 80046f4:	4616      	mov	r6, r2
 80046f6:	4699      	mov	r9, r3
 80046f8:	688a      	ldr	r2, [r1, #8]
 80046fa:	690b      	ldr	r3, [r1, #16]
 80046fc:	f8dd 8020 	ldr.w	r8, [sp, #32]
 8004700:	4293      	cmp	r3, r2
 8004702:	bfb8      	it	lt
 8004704:	4613      	movlt	r3, r2
 8004706:	6033      	str	r3, [r6, #0]
 8004708:	f891 2043 	ldrb.w	r2, [r1, #67]	; 0x43
 800470c:	4607      	mov	r7, r0
 800470e:	460c      	mov	r4, r1
 8004710:	b10a      	cbz	r2, 8004716 <_printf_common+0x26>
 8004712:	3301      	adds	r3, #1
 8004714:	6033      	str	r3, [r6, #0]
 8004716:	6823      	ldr	r3, [r4, #0]
 8004718:	0699      	lsls	r1, r3, #26
 800471a:	bf42      	ittt	mi
 800471c:	6833      	ldrmi	r3, [r6, #0]
 800471e:	3302      	addmi	r3, #2
 8004720:	6033      	strmi	r3, [r6, #0]
 8004722:	6825      	ldr	r5, [r4, #0]
 8004724:	f015 0506 	ands.w	r5, r5, #6
 8004728:	d106      	bne.n	8004738 <_printf_common+0x48>
 800472a:	f104 0a19 	add.w	sl, r4, #25
 800472e:	68e3      	ldr	r3, [r4, #12]
 8004730:	6832      	ldr	r2, [r6, #0]
 8004732:	1a9b      	subs	r3, r3, r2
 8004734:	42ab      	cmp	r3, r5
 8004736:	dc26      	bgt.n	8004786 <_printf_common+0x96>
 8004738:	f894 2043 	ldrb.w	r2, [r4, #67]	; 0x43
 800473c:	1e13      	subs	r3, r2, #0
 800473e:	6822      	ldr	r2, [r4, #0]
 8004740:	bf18      	it	ne
 8004742:	2301      	movne	r3, #1
 8004744:	0692      	lsls	r2, r2, #26
 8004746:	d42b      	bmi.n	80047a0 <_printf_common+0xb0>
 8004748:	f104 0243 	add.w	r2, r4, #67	; 0x43
 800474c:	4649      	mov	r1, r9
 800474e:	4638      	mov	r0, r7
 8004750:	47c0      	blx	r8
 8004752:	3001      	adds	r0, #1
 8004754:	d01e      	beq.n	8004794 <_printf_common+0xa4>
 8004756:	6823      	ldr	r3, [r4, #0]
 8004758:	68e5      	ldr	r5, [r4, #12]
 800475a:	6832      	ldr	r2, [r6, #0]
 800475c:	f003 0306 	and.w	r3, r3, #6
 8004760:	2b04      	cmp	r3, #4
 8004762:	bf08      	it	eq
 8004764:	1aad      	subeq	r5, r5, r2
 8004766:	68a3      	ldr	r3, [r4, #8]
 8004768:	6922      	ldr	r2, [r4, #16]
 800476a:	bf0c      	ite	eq
 800476c:	ea25 75e5 	biceq.w	r5, r5, r5, asr #31
 8004770:	2500      	movne	r5, #0
 8004772:	4293      	cmp	r3, r2
 8004774:	bfc4      	itt	gt
 8004776:	1a9b      	subgt	r3, r3, r2
 8004778:	18ed      	addgt	r5, r5, r3
 800477a:	2600      	movs	r6, #0
 800477c:	341a      	adds	r4, #26
 800477e:	42b5      	cmp	r5, r6
 8004780:	d11a      	bne.n	80047b8 <_printf_common+0xc8>
 8004782:	2000      	movs	r0, #0
 8004784:	e008      	b.n	8004798 <_printf_common+0xa8>
 8004786:	2301      	movs	r3, #1
 8004788:	4652      	mov	r2, sl
 800478a:	4649      	mov	r1, r9
 800478c:	4638      	mov	r0, r7
 800478e:	47c0      	blx	r8
 8004790:	3001      	adds	r0, #1
 8004792:	d103      	bne.n	800479c <_printf_common+0xac>
 8004794:	f04f 30ff 	mov.w	r0, #4294967295
 8004798:	e8bd 87f0 	ldmia.w	sp!, {r4, r5, r6, r7, r8, r9, sl, pc}
 800479c:	3501      	adds	r5, #1
 800479e:	e7c6      	b.n	800472e <_printf_common+0x3e>
 80047a0:	18e1      	adds	r1, r4, r3
 80047a2:	1c5a      	adds	r2, r3, #1
 80047a4:	2030      	movs	r0, #48	; 0x30
 80047a6:	f881 0043 	strb.w	r0, [r1, #67]	; 0x43
 80047aa:	4422      	add	r2, r4
 80047ac:	f894 1045 	ldrb.w	r1, [r4, #69]	; 0x45
 80047b0:	f882 1043 	strb.w	r1, [r2, #67]	; 0x43
 80047b4:	3302      	adds	r3, #2
 80047b6:	e7c7      	b.n	8004748 <_printf_common+0x58>
 80047b8:	2301      	movs	r3, #1
 80047ba:	4622      	mov	r2, r4
 80047bc:	4649      	mov	r1, r9
 80047be:	4638      	mov	r0, r7
 80047c0:	47c0      	blx	r8
 80047c2:	3001      	adds	r0, #1
 80047c4:	d0e6      	beq.n	8004794 <_printf_common+0xa4>
 80047c6:	3601      	adds	r6, #1
 80047c8:	e7d9      	b.n	800477e <_printf_common+0x8e>
	...

080047cc <_printf_i>:
 80047cc:	e92d 47ff 	stmdb	sp!, {r0, r1, r2, r3, r4, r5, r6, r7, r8, r9, sl, lr}
 80047d0:	460c      	mov	r4, r1
 80047d2:	4691      	mov	r9, r2
 80047d4:	7e27      	ldrb	r7, [r4, #24]
 80047d6:	990c      	ldr	r1, [sp, #48]	; 0x30
 80047d8:	2f78      	cmp	r7, #120	; 0x78
 80047da:	4680      	mov	r8, r0
 80047dc:	469a      	mov	sl, r3
 80047de:	f104 0243 	add.w	r2, r4, #67	; 0x43
 80047e2:	d807      	bhi.n	80047f4 <_printf_i+0x28>
 80047e4:	2f62      	cmp	r7, #98	; 0x62
 80047e6:	d80a      	bhi.n	80047fe <_printf_i+0x32>
 80047e8:	2f00      	cmp	r7, #0
 80047ea:	f000 80d8 	beq.w	800499e <_printf_i+0x1d2>
 80047ee:	2f58      	cmp	r7, #88	; 0x58
 80047f0:	f000 80a3 	beq.w	800493a <_printf_i+0x16e>
 80047f4:	f104 0642 	add.w	r6, r4, #66	; 0x42
 80047f8:	f884 7042 	strb.w	r7, [r4, #66]	; 0x42
 80047fc:	e03a      	b.n	8004874 <_printf_i+0xa8>
 80047fe:	f1a7 0363 	sub.w	r3, r7, #99	; 0x63
 8004802:	2b15      	cmp	r3, #21
 8004804:	d8f6      	bhi.n	80047f4 <_printf_i+0x28>
 8004806:	a001      	add	r0, pc, #4	; (adr r0, 800480c <_printf_i+0x40>)
 8004808:	f850 f023 	ldr.w	pc, [r0, r3, lsl #2]
 800480c:	08004865 	.word	0x08004865
 8004810:	08004879 	.word	0x08004879
 8004814:	080047f5 	.word	0x080047f5
 8004818:	080047f5 	.word	0x080047f5
 800481c:	080047f5 	.word	0x080047f5
 8004820:	080047f5 	.word	0x080047f5
 8004824:	08004879 	.word	0x08004879
 8004828:	080047f5 	.word	0x080047f5
 800482c:	080047f5 	.word	0x080047f5
 8004830:	080047f5 	.word	0x080047f5
 8004834:	080047f5 	.word	0x080047f5
 8004838:	08004985 	.word	0x08004985
 800483c:	080048a9 	.word	0x080048a9
 8004840:	08004967 	.word	0x08004967
 8004844:	080047f5 	.word	0x080047f5
 8004848:	080047f5 	.word	0x080047f5
 800484c:	080049a7 	.word	0x080049a7
 8004850:	080047f5 	.word	0x080047f5
 8004854:	080048a9 	.word	0x080048a9
 8004858:	080047f5 	.word	0x080047f5
 800485c:	080047f5 	.word	0x080047f5
 8004860:	0800496f 	.word	0x0800496f
 8004864:	680b      	ldr	r3, [r1, #0]
 8004866:	1d1a      	adds	r2, r3, #4
 8004868:	681b      	ldr	r3, [r3, #0]
 800486a:	600a      	str	r2, [r1, #0]
 800486c:	f104 0642 	add.w	r6, r4, #66	; 0x42
 8004870:	f884 3042 	strb.w	r3, [r4, #66]	; 0x42
 8004874:	2301      	movs	r3, #1
 8004876:	e0a3      	b.n	80049c0 <_printf_i+0x1f4>
 8004878:	6825      	ldr	r5, [r4, #0]
 800487a:	6808      	ldr	r0, [r1, #0]
 800487c:	062e      	lsls	r6, r5, #24
 800487e:	f100 0304 	add.w	r3, r0, #4
 8004882:	d50a      	bpl.n	800489a <_printf_i+0xce>
 8004884:	6805      	ldr	r5, [r0, #0]
 8004886:	600b      	str	r3, [r1, #0]
 8004888:	2d00      	cmp	r5, #0
 800488a:	da03      	bge.n	8004894 <_printf_i+0xc8>
 800488c:	232d      	movs	r3, #45	; 0x2d
 800488e:	426d      	negs	r5, r5
 8004890:	f884 3043 	strb.w	r3, [r4, #67]	; 0x43
 8004894:	485e      	ldr	r0, [pc, #376]	; (8004a10 <_printf_i+0x244>)
 8004896:	230a      	movs	r3, #10
 8004898:	e019      	b.n	80048ce <_printf_i+0x102>
 800489a:	f015 0f40 	tst.w	r5, #64	; 0x40
 800489e:	6805      	ldr	r5, [r0, #0]
 80048a0:	600b      	str	r3, [r1, #0]
 80048a2:	bf18      	it	ne
 80048a4:	b22d      	sxthne	r5, r5
 80048a6:	e7ef      	b.n	8004888 <_printf_i+0xbc>
 80048a8:	680b      	ldr	r3, [r1, #0]
 80048aa:	6825      	ldr	r5, [r4, #0]
 80048ac:	1d18      	adds	r0, r3, #4
 80048ae:	6008      	str	r0, [r1, #0]
 80048b0:	0628      	lsls	r0, r5, #24
 80048b2:	d501      	bpl.n	80048b8 <_printf_i+0xec>
 80048b4:	681d      	ldr	r5, [r3, #0]
 80048b6:	e002      	b.n	80048be <_printf_i+0xf2>
 80048b8:	0669      	lsls	r1, r5, #25
 80048ba:	d5fb      	bpl.n	80048b4 <_printf_i+0xe8>
 80048bc:	881d      	ldrh	r5, [r3, #0]
 80048be:	4854      	ldr	r0, [pc, #336]	; (8004a10 <_printf_i+0x244>)
 80048c0:	2f6f      	cmp	r7, #111	; 0x6f
 80048c2:	bf0c      	ite	eq
 80048c4:	2308      	moveq	r3, #8
 80048c6:	230a      	movne	r3, #10
 80048c8:	2100      	movs	r1, #0
 80048ca:	f884 1043 	strb.w	r1, [r4, #67]	; 0x43
 80048ce:	6866      	ldr	r6, [r4, #4]
 80048d0:	60a6      	str	r6, [r4, #8]
 80048d2:	2e00      	cmp	r6, #0
 80048d4:	bfa2      	ittt	ge
 80048d6:	6821      	ldrge	r1, [r4, #0]
 80048d8:	f021 0104 	bicge.w	r1, r1, #4
 80048dc:	6021      	strge	r1, [r4, #0]
 80048de:	b90d      	cbnz	r5, 80048e4 <_printf_i+0x118>
 80048e0:	2e00      	cmp	r6, #0
 80048e2:	d04d      	beq.n	8004980 <_printf_i+0x1b4>
 80048e4:	4616      	mov	r6, r2
 80048e6:	fbb5 f1f3 	udiv	r1, r5, r3
 80048ea:	fb03 5711 	mls	r7, r3, r1, r5
 80048ee:	5dc7      	ldrb	r7, [r0, r7]
 80048f0:	f806 7d01 	strb.w	r7, [r6, #-1]!
 80048f4:	462f      	mov	r7, r5
 80048f6:	42bb      	cmp	r3, r7
 80048f8:	460d      	mov	r5, r1
 80048fa:	d9f4      	bls.n	80048e6 <_printf_i+0x11a>
 80048fc:	2b08      	cmp	r3, #8
 80048fe:	d10b      	bne.n	8004918 <_printf_i+0x14c>
 8004900:	6823      	ldr	r3, [r4, #0]
 8004902:	07df      	lsls	r7, r3, #31
 8004904:	d508      	bpl.n	8004918 <_printf_i+0x14c>
 8004906:	6923      	ldr	r3, [r4, #16]
 8004908:	6861      	ldr	r1, [r4, #4]
 800490a:	4299      	cmp	r1, r3
 800490c:	bfde      	ittt	le
 800490e:	2330      	movle	r3, #48	; 0x30
 8004910:	f806 3c01 	strble.w	r3, [r6, #-1]
 8004914:	f106 36ff 	addle.w	r6, r6, #4294967295
 8004918:	1b92      	subs	r2, r2, r6
 800491a:	6122      	str	r2, [r4, #16]
 800491c:	f8cd a000 	str.w	sl, [sp]
 8004920:	464b      	mov	r3, r9
 8004922:	aa03      	add	r2, sp, #12
 8004924:	4621      	mov	r1, r4
 8004926:	4640      	mov	r0, r8
 8004928:	f7ff fee2 	bl	80046f0 <_printf_common>
 800492c:	3001      	adds	r0, #1
 800492e:	d14c      	bne.n	80049ca <_printf_i+0x1fe>
 8004930:	f04f 30ff 	mov.w	r0, #4294967295
 8004934:	b004      	add	sp, #16
 8004936:	e8bd 87f0 	ldmia.w	sp!, {r4, r5, r6, r7, r8, r9, sl, pc}
 800493a:	4835      	ldr	r0, [pc, #212]	; (8004a10 <_printf_i+0x244>)
 800493c:	f884 7045 	strb.w	r7, [r4, #69]	; 0x45
 8004940:	6823      	ldr	r3, [r4, #0]
 8004942:	680e      	ldr	r6, [r1, #0]
 8004944:	061f      	lsls	r7, r3, #24
 8004946:	f856 5b04 	ldr.w	r5, [r6], #4
 800494a:	600e      	str	r6, [r1, #0]
 800494c:	d514      	bpl.n	8004978 <_printf_i+0x1ac>
 800494e:	07d9      	lsls	r1, r3, #31
 8004950:	bf44      	itt	mi
 8004952:	f043 0320 	orrmi.w	r3, r3, #32
 8004956:	6023      	strmi	r3, [r4, #0]
 8004958:	b91d      	cbnz	r5, 8004962 <_printf_i+0x196>
 800495a:	6823      	ldr	r3, [r4, #0]
 800495c:	f023 0320 	bic.w	r3, r3, #32
 8004960:	6023      	str	r3, [r4, #0]
 8004962:	2310      	movs	r3, #16
 8004964:	e7b0      	b.n	80048c8 <_printf_i+0xfc>
 8004966:	6823      	ldr	r3, [r4, #0]
 8004968:	f043 0320 	orr.w	r3, r3, #32
 800496c:	6023      	str	r3, [r4, #0]
 800496e:	2378      	movs	r3, #120	; 0x78
 8004970:	4828      	ldr	r0, [pc, #160]	; (8004a14 <_printf_i+0x248>)
 8004972:	f884 3045 	strb.w	r3, [r4, #69]	; 0x45
 8004976:	e7e3      	b.n	8004940 <_printf_i+0x174>
 8004978:	065e      	lsls	r6, r3, #25
 800497a:	bf48      	it	mi
 800497c:	b2ad      	uxthmi	r5, r5
 800497e:	e7e6      	b.n	800494e <_printf_i+0x182>
 8004980:	4616      	mov	r6, r2
 8004982:	e7bb      	b.n	80048fc <_printf_i+0x130>
 8004984:	680b      	ldr	r3, [r1, #0]
 8004986:	6826      	ldr	r6, [r4, #0]
 8004988:	6960      	ldr	r0, [r4, #20]
 800498a:	1d1d      	adds	r5, r3, #4
 800498c:	600d      	str	r5, [r1, #0]
 800498e:	0635      	lsls	r5, r6, #24
 8004990:	681b      	ldr	r3, [r3, #0]
 8004992:	d501      	bpl.n	8004998 <_printf_i+0x1cc>
 8004994:	6018      	str	r0, [r3, #0]
 8004996:	e002      	b.n	800499e <_printf_i+0x1d2>
 8004998:	0671      	lsls	r1, r6, #25
 800499a:	d5fb      	bpl.n	8004994 <_printf_i+0x1c8>
 800499c:	8018      	strh	r0, [r3, #0]
 800499e:	2300      	movs	r3, #0
 80049a0:	6123      	str	r3, [r4, #16]
 80049a2:	4616      	mov	r6, r2
 80049a4:	e7ba      	b.n	800491c <_printf_i+0x150>
 80049a6:	680b      	ldr	r3, [r1, #0]
 80049a8:	1d1a      	adds	r2, r3, #4
 80049aa:	600a      	str	r2, [r1, #0]
 80049ac:	681e      	ldr	r6, [r3, #0]
 80049ae:	6862      	ldr	r2, [r4, #4]
 80049b0:	2100      	movs	r1, #0
 80049b2:	4630      	mov	r0, r6
 80049b4:	f7fb fc0c 	bl	80001d0 <memchr>
 80049b8:	b108      	cbz	r0, 80049be <_printf_i+0x1f2>
 80049ba:	1b80      	subs	r0, r0, r6
 80049bc:	6060      	str	r0, [r4, #4]
 80049be:	6863      	ldr	r3, [r4, #4]
 80049c0:	6123      	str	r3, [r4, #16]
 80049c2:	2300      	movs	r3, #0
 80049c4:	f884 3043 	strb.w	r3, [r4, #67]	; 0x43
 80049c8:	e7a8      	b.n	800491c <_printf_i+0x150>
 80049ca:	6923      	ldr	r3, [r4, #16]
 80049cc:	4632      	mov	r2, r6
 80049ce:	4649      	mov	r1, r9
 80049d0:	4640      	mov	r0, r8
 80049d2:	47d0      	blx	sl
 80049d4:	3001      	adds	r0, #1
 80049d6:	d0ab      	beq.n	8004930 <_printf_i+0x164>
 80049d8:	6823      	ldr	r3, [r4, #0]
 80049da:	079b      	lsls	r3, r3, #30
 80049dc:	d413      	bmi.n	8004a06 <_printf_i+0x23a>
 80049de:	68e0      	ldr	r0, [r4, #12]
 80049e0:	9b03      	ldr	r3, [sp, #12]
 80049e2:	4298      	cmp	r0, r3
 80049e4:	bfb8      	it	lt
 80049e6:	4618      	movlt	r0, r3
 80049e8:	e7a4      	b.n	8004934 <_printf_i+0x168>
 80049ea:	2301      	movs	r3, #1
 80049ec:	4632      	mov	r2, r6
 80049ee:	4649      	mov	r1, r9
 80049f0:	4640      	mov	r0, r8
 80049f2:	47d0      	blx	sl
 80049f4:	3001      	adds	r0, #1
 80049f6:	d09b      	beq.n	8004930 <_printf_i+0x164>
 80049f8:	3501      	adds	r5, #1
 80049fa:	68e3      	ldr	r3, [r4, #12]
 80049fc:	9903      	ldr	r1, [sp, #12]
 80049fe:	1a5b      	subs	r3, r3, r1
 8004a00:	42ab      	cmp	r3, r5
 8004a02:	dcf2      	bgt.n	80049ea <_printf_i+0x21e>
 8004a04:	e7eb      	b.n	80049de <_printf_i+0x212>
 8004a06:	2500      	movs	r5, #0
 8004a08:	f104 0619 	add.w	r6, r4, #25
 8004a0c:	e7f5      	b.n	80049fa <_printf_i+0x22e>
 8004a0e:	bf00      	nop
 8004a10:	080055a1 	.word	0x080055a1
 8004a14:	080055b2 	.word	0x080055b2

08004a18 <_putc_r>:
 8004a18:	b570      	push	{r4, r5, r6, lr}
 8004a1a:	460d      	mov	r5, r1
 8004a1c:	4614      	mov	r4, r2
 8004a1e:	4606      	mov	r6, r0
 8004a20:	b118      	cbz	r0, 8004a2a <_putc_r+0x12>
 8004a22:	6983      	ldr	r3, [r0, #24]
 8004a24:	b90b      	cbnz	r3, 8004a2a <_putc_r+0x12>
 8004a26:	f7ff f9e5 	bl	8003df4 <__sinit>
 8004a2a:	4b1c      	ldr	r3, [pc, #112]	; (8004a9c <_putc_r+0x84>)
 8004a2c:	429c      	cmp	r4, r3
 8004a2e:	d124      	bne.n	8004a7a <_putc_r+0x62>
 8004a30:	6874      	ldr	r4, [r6, #4]
 8004a32:	6e63      	ldr	r3, [r4, #100]	; 0x64
 8004a34:	07d8      	lsls	r0, r3, #31
 8004a36:	d405      	bmi.n	8004a44 <_putc_r+0x2c>
 8004a38:	89a3      	ldrh	r3, [r4, #12]
 8004a3a:	0599      	lsls	r1, r3, #22
 8004a3c:	d402      	bmi.n	8004a44 <_putc_r+0x2c>
 8004a3e:	6da0      	ldr	r0, [r4, #88]	; 0x58
 8004a40:	f7ff fa88 	bl	8003f54 <__retarget_lock_acquire_recursive>
 8004a44:	68a3      	ldr	r3, [r4, #8]
 8004a46:	3b01      	subs	r3, #1
 8004a48:	2b00      	cmp	r3, #0
 8004a4a:	60a3      	str	r3, [r4, #8]
 8004a4c:	da05      	bge.n	8004a5a <_putc_r+0x42>
 8004a4e:	69a2      	ldr	r2, [r4, #24]
 8004a50:	4293      	cmp	r3, r2
 8004a52:	db1c      	blt.n	8004a8e <_putc_r+0x76>
 8004a54:	b2eb      	uxtb	r3, r5
 8004a56:	2b0a      	cmp	r3, #10
 8004a58:	d019      	beq.n	8004a8e <_putc_r+0x76>
 8004a5a:	6823      	ldr	r3, [r4, #0]
 8004a5c:	1c5a      	adds	r2, r3, #1
 8004a5e:	6022      	str	r2, [r4, #0]
 8004a60:	701d      	strb	r5, [r3, #0]
 8004a62:	b2ed      	uxtb	r5, r5
 8004a64:	6e63      	ldr	r3, [r4, #100]	; 0x64
 8004a66:	07da      	lsls	r2, r3, #31
 8004a68:	d405      	bmi.n	8004a76 <_putc_r+0x5e>
 8004a6a:	89a3      	ldrh	r3, [r4, #12]
 8004a6c:	059b      	lsls	r3, r3, #22
 8004a6e:	d402      	bmi.n	8004a76 <_putc_r+0x5e>
 8004a70:	6da0      	ldr	r0, [r4, #88]	; 0x58
 8004a72:	f7ff fa70 	bl	8003f56 <__retarget_lock_release_recursive>
 8004a76:	4628      	mov	r0, r5
 8004a78:	bd70      	pop	{r4, r5, r6, pc}
 8004a7a:	4b09      	ldr	r3, [pc, #36]	; (8004aa0 <_putc_r+0x88>)
 8004a7c:	429c      	cmp	r4, r3
 8004a7e:	d101      	bne.n	8004a84 <_putc_r+0x6c>
 8004a80:	68b4      	ldr	r4, [r6, #8]
 8004a82:	e7d6      	b.n	8004a32 <_putc_r+0x1a>
 8004a84:	4b07      	ldr	r3, [pc, #28]	; (8004aa4 <_putc_r+0x8c>)
 8004a86:	429c      	cmp	r4, r3
 8004a88:	bf08      	it	eq
 8004a8a:	68f4      	ldreq	r4, [r6, #12]
 8004a8c:	e7d1      	b.n	8004a32 <_putc_r+0x1a>
 8004a8e:	4629      	mov	r1, r5
 8004a90:	4622      	mov	r2, r4
 8004a92:	4630      	mov	r0, r6
 8004a94:	f7fe ffb6 	bl	8003a04 <__swbuf_r>
 8004a98:	4605      	mov	r5, r0
 8004a9a:	e7e3      	b.n	8004a64 <_putc_r+0x4c>
 8004a9c:	08005550 	.word	0x08005550
 8004aa0:	08005570 	.word	0x08005570
 8004aa4:	08005530 	.word	0x08005530

08004aa8 <_sbrk_r>:
 8004aa8:	b538      	push	{r3, r4, r5, lr}
 8004aaa:	4d06      	ldr	r5, [pc, #24]	; (8004ac4 <_sbrk_r+0x1c>)
 8004aac:	2300      	movs	r3, #0
 8004aae:	4604      	mov	r4, r0
 8004ab0:	4608      	mov	r0, r1
 8004ab2:	602b      	str	r3, [r5, #0]
 8004ab4:	f7fe fbee 	bl	8003294 <_sbrk>
 8004ab8:	1c43      	adds	r3, r0, #1
 8004aba:	d102      	bne.n	8004ac2 <_sbrk_r+0x1a>
 8004abc:	682b      	ldr	r3, [r5, #0]
 8004abe:	b103      	cbz	r3, 8004ac2 <_sbrk_r+0x1a>
 8004ac0:	6023      	str	r3, [r4, #0]
 8004ac2:	bd38      	pop	{r3, r4, r5, pc}
 8004ac4:	20000624 	.word	0x20000624

08004ac8 <__sread>:
 8004ac8:	b510      	push	{r4, lr}
 8004aca:	460c      	mov	r4, r1
 8004acc:	f9b1 100e 	ldrsh.w	r1, [r1, #14]
 8004ad0:	f000 f8e2 	bl	8004c98 <_read_r>
 8004ad4:	2800      	cmp	r0, #0
 8004ad6:	bfab      	itete	ge
 8004ad8:	6d63      	ldrge	r3, [r4, #84]	; 0x54
 8004ada:	89a3      	ldrhlt	r3, [r4, #12]
 8004adc:	181b      	addge	r3, r3, r0
 8004ade:	f423 5380 	biclt.w	r3, r3, #4096	; 0x1000
 8004ae2:	bfac      	ite	ge
 8004ae4:	6563      	strge	r3, [r4, #84]	; 0x54
 8004ae6:	81a3      	strhlt	r3, [r4, #12]
 8004ae8:	bd10      	pop	{r4, pc}

08004aea <__swrite>:
 8004aea:	e92d 41f0 	stmdb	sp!, {r4, r5, r6, r7, r8, lr}
 8004aee:	461f      	mov	r7, r3
 8004af0:	898b      	ldrh	r3, [r1, #12]
 8004af2:	05db      	lsls	r3, r3, #23
 8004af4:	4605      	mov	r5, r0
 8004af6:	460c      	mov	r4, r1
 8004af8:	4616      	mov	r6, r2
 8004afa:	d505      	bpl.n	8004b08 <__swrite+0x1e>
 8004afc:	f9b1 100e 	ldrsh.w	r1, [r1, #14]
 8004b00:	2302      	movs	r3, #2
 8004b02:	2200      	movs	r2, #0
 8004b04:	f000 f85c 	bl	8004bc0 <_lseek_r>
 8004b08:	89a3      	ldrh	r3, [r4, #12]
 8004b0a:	f9b4 100e 	ldrsh.w	r1, [r4, #14]
 8004b0e:	f423 5380 	bic.w	r3, r3, #4096	; 0x1000
 8004b12:	81a3      	strh	r3, [r4, #12]
 8004b14:	4632      	mov	r2, r6
 8004b16:	463b      	mov	r3, r7
 8004b18:	4628      	mov	r0, r5
 8004b1a:	e8bd 41f0 	ldmia.w	sp!, {r4, r5, r6, r7, r8, lr}
 8004b1e:	f7fb bedf 	b.w	80008e0 <_write_r>

08004b22 <__sseek>:
 8004b22:	b510      	push	{r4, lr}
 8004b24:	460c      	mov	r4, r1
 8004b26:	f9b1 100e 	ldrsh.w	r1, [r1, #14]
 8004b2a:	f000 f849 	bl	8004bc0 <_lseek_r>
 8004b2e:	1c43      	adds	r3, r0, #1
 8004b30:	89a3      	ldrh	r3, [r4, #12]
 8004b32:	bf15      	itete	ne
 8004b34:	6560      	strne	r0, [r4, #84]	; 0x54
 8004b36:	f423 5380 	biceq.w	r3, r3, #4096	; 0x1000
 8004b3a:	f443 5380 	orrne.w	r3, r3, #4096	; 0x1000
 8004b3e:	81a3      	strheq	r3, [r4, #12]
 8004b40:	bf18      	it	ne
 8004b42:	81a3      	strhne	r3, [r4, #12]
 8004b44:	bd10      	pop	{r4, pc}

08004b46 <__sclose>:
 8004b46:	f9b1 100e 	ldrsh.w	r1, [r1, #14]
 8004b4a:	f000 b807 	b.w	8004b5c <_close_r>

08004b4e <abort>:
 8004b4e:	b508      	push	{r3, lr}
 8004b50:	2006      	movs	r0, #6
 8004b52:	f000 f8db 	bl	8004d0c <raise>
 8004b56:	2001      	movs	r0, #1
 8004b58:	f7fe fb41 	bl	80031de <_exit>

08004b5c <_close_r>:
 8004b5c:	b538      	push	{r3, r4, r5, lr}
 8004b5e:	4d06      	ldr	r5, [pc, #24]	; (8004b78 <_close_r+0x1c>)
 8004b60:	2300      	movs	r3, #0
 8004b62:	4604      	mov	r4, r0
 8004b64:	4608      	mov	r0, r1
 8004b66:	602b      	str	r3, [r5, #0]
 8004b68:	f7fe fb60 	bl	800322c <_close>
 8004b6c:	1c43      	adds	r3, r0, #1
 8004b6e:	d102      	bne.n	8004b76 <_close_r+0x1a>
 8004b70:	682b      	ldr	r3, [r5, #0]
 8004b72:	b103      	cbz	r3, 8004b76 <_close_r+0x1a>
 8004b74:	6023      	str	r3, [r4, #0]
 8004b76:	bd38      	pop	{r3, r4, r5, pc}
 8004b78:	20000624 	.word	0x20000624

08004b7c <_fstat_r>:
 8004b7c:	b538      	push	{r3, r4, r5, lr}
 8004b7e:	4d07      	ldr	r5, [pc, #28]	; (8004b9c <_fstat_r+0x20>)
 8004b80:	2300      	movs	r3, #0
 8004b82:	4604      	mov	r4, r0
 8004b84:	4608      	mov	r0, r1
 8004b86:	4611      	mov	r1, r2
 8004b88:	602b      	str	r3, [r5, #0]
 8004b8a:	f7fe fb5b 	bl	8003244 <_fstat>
 8004b8e:	1c43      	adds	r3, r0, #1
 8004b90:	d102      	bne.n	8004b98 <_fstat_r+0x1c>
 8004b92:	682b      	ldr	r3, [r5, #0]
 8004b94:	b103      	cbz	r3, 8004b98 <_fstat_r+0x1c>
 8004b96:	6023      	str	r3, [r4, #0]
 8004b98:	bd38      	pop	{r3, r4, r5, pc}
 8004b9a:	bf00      	nop
 8004b9c:	20000624 	.word	0x20000624

08004ba0 <_isatty_r>:
 8004ba0:	b538      	push	{r3, r4, r5, lr}
 8004ba2:	4d06      	ldr	r5, [pc, #24]	; (8004bbc <_isatty_r+0x1c>)
 8004ba4:	2300      	movs	r3, #0
 8004ba6:	4604      	mov	r4, r0
 8004ba8:	4608      	mov	r0, r1
 8004baa:	602b      	str	r3, [r5, #0]
 8004bac:	f7fe fb5a 	bl	8003264 <_isatty>
 8004bb0:	1c43      	adds	r3, r0, #1
 8004bb2:	d102      	bne.n	8004bba <_isatty_r+0x1a>
 8004bb4:	682b      	ldr	r3, [r5, #0]
 8004bb6:	b103      	cbz	r3, 8004bba <_isatty_r+0x1a>
 8004bb8:	6023      	str	r3, [r4, #0]
 8004bba:	bd38      	pop	{r3, r4, r5, pc}
 8004bbc:	20000624 	.word	0x20000624

08004bc0 <_lseek_r>:
 8004bc0:	b538      	push	{r3, r4, r5, lr}
 8004bc2:	4d07      	ldr	r5, [pc, #28]	; (8004be0 <_lseek_r+0x20>)
 8004bc4:	4604      	mov	r4, r0
 8004bc6:	4608      	mov	r0, r1
 8004bc8:	4611      	mov	r1, r2
 8004bca:	2200      	movs	r2, #0
 8004bcc:	602a      	str	r2, [r5, #0]
 8004bce:	461a      	mov	r2, r3
 8004bd0:	f7fe fb53 	bl	800327a <_lseek>
 8004bd4:	1c43      	adds	r3, r0, #1
 8004bd6:	d102      	bne.n	8004bde <_lseek_r+0x1e>
 8004bd8:	682b      	ldr	r3, [r5, #0]
 8004bda:	b103      	cbz	r3, 8004bde <_lseek_r+0x1e>
 8004bdc:	6023      	str	r3, [r4, #0]
 8004bde:	bd38      	pop	{r3, r4, r5, pc}
 8004be0:	20000624 	.word	0x20000624

08004be4 <memcpy>:
 8004be4:	440a      	add	r2, r1
 8004be6:	4291      	cmp	r1, r2
 8004be8:	f100 33ff 	add.w	r3, r0, #4294967295
 8004bec:	d100      	bne.n	8004bf0 <memcpy+0xc>
 8004bee:	4770      	bx	lr
 8004bf0:	b510      	push	{r4, lr}
 8004bf2:	f811 4b01 	ldrb.w	r4, [r1], #1
 8004bf6:	f803 4f01 	strb.w	r4, [r3, #1]!
 8004bfa:	4291      	cmp	r1, r2
 8004bfc:	d1f9      	bne.n	8004bf2 <memcpy+0xe>
 8004bfe:	bd10      	pop	{r4, pc}

08004c00 <memmove>:
 8004c00:	4288      	cmp	r0, r1
 8004c02:	b510      	push	{r4, lr}
 8004c04:	eb01 0402 	add.w	r4, r1, r2
 8004c08:	d902      	bls.n	8004c10 <memmove+0x10>
 8004c0a:	4284      	cmp	r4, r0
 8004c0c:	4623      	mov	r3, r4
 8004c0e:	d807      	bhi.n	8004c20 <memmove+0x20>
 8004c10:	1e43      	subs	r3, r0, #1
 8004c12:	42a1      	cmp	r1, r4
 8004c14:	d008      	beq.n	8004c28 <memmove+0x28>
 8004c16:	f811 2b01 	ldrb.w	r2, [r1], #1
 8004c1a:	f803 2f01 	strb.w	r2, [r3, #1]!
 8004c1e:	e7f8      	b.n	8004c12 <memmove+0x12>
 8004c20:	4402      	add	r2, r0
 8004c22:	4601      	mov	r1, r0
 8004c24:	428a      	cmp	r2, r1
 8004c26:	d100      	bne.n	8004c2a <memmove+0x2a>
 8004c28:	bd10      	pop	{r4, pc}
 8004c2a:	f813 4d01 	ldrb.w	r4, [r3, #-1]!
 8004c2e:	f802 4d01 	strb.w	r4, [r2, #-1]!
 8004c32:	e7f7      	b.n	8004c24 <memmove+0x24>

08004c34 <__malloc_lock>:
 8004c34:	4801      	ldr	r0, [pc, #4]	; (8004c3c <__malloc_lock+0x8>)
 8004c36:	f7ff b98d 	b.w	8003f54 <__retarget_lock_acquire_recursive>
 8004c3a:	bf00      	nop
 8004c3c:	2000061d 	.word	0x2000061d

08004c40 <__malloc_unlock>:
 8004c40:	4801      	ldr	r0, [pc, #4]	; (8004c48 <__malloc_unlock+0x8>)
 8004c42:	f7ff b988 	b.w	8003f56 <__retarget_lock_release_recursive>
 8004c46:	bf00      	nop
 8004c48:	2000061d 	.word	0x2000061d

08004c4c <_realloc_r>:
 8004c4c:	b5f8      	push	{r3, r4, r5, r6, r7, lr}
 8004c4e:	4607      	mov	r7, r0
 8004c50:	4614      	mov	r4, r2
 8004c52:	460e      	mov	r6, r1
 8004c54:	b921      	cbnz	r1, 8004c60 <_realloc_r+0x14>
 8004c56:	e8bd 40f8 	ldmia.w	sp!, {r3, r4, r5, r6, r7, lr}
 8004c5a:	4611      	mov	r1, r2
 8004c5c:	f7ff ba38 	b.w	80040d0 <_malloc_r>
 8004c60:	b922      	cbnz	r2, 8004c6c <_realloc_r+0x20>
 8004c62:	f7ff f9e5 	bl	8004030 <_free_r>
 8004c66:	4625      	mov	r5, r4
 8004c68:	4628      	mov	r0, r5
 8004c6a:	bdf8      	pop	{r3, r4, r5, r6, r7, pc}
 8004c6c:	f000 f86a 	bl	8004d44 <_malloc_usable_size_r>
 8004c70:	42a0      	cmp	r0, r4
 8004c72:	d20f      	bcs.n	8004c94 <_realloc_r+0x48>
 8004c74:	4621      	mov	r1, r4
 8004c76:	4638      	mov	r0, r7
 8004c78:	f7ff fa2a 	bl	80040d0 <_malloc_r>
 8004c7c:	4605      	mov	r5, r0
 8004c7e:	2800      	cmp	r0, #0
 8004c80:	d0f2      	beq.n	8004c68 <_realloc_r+0x1c>
 8004c82:	4631      	mov	r1, r6
 8004c84:	4622      	mov	r2, r4
 8004c86:	f7ff ffad 	bl	8004be4 <memcpy>
 8004c8a:	4631      	mov	r1, r6
 8004c8c:	4638      	mov	r0, r7
 8004c8e:	f7ff f9cf 	bl	8004030 <_free_r>
 8004c92:	e7e9      	b.n	8004c68 <_realloc_r+0x1c>
 8004c94:	4635      	mov	r5, r6
 8004c96:	e7e7      	b.n	8004c68 <_realloc_r+0x1c>

08004c98 <_read_r>:
 8004c98:	b538      	push	{r3, r4, r5, lr}
 8004c9a:	4d07      	ldr	r5, [pc, #28]	; (8004cb8 <_read_r+0x20>)
 8004c9c:	4604      	mov	r4, r0
 8004c9e:	4608      	mov	r0, r1
 8004ca0:	4611      	mov	r1, r2
 8004ca2:	2200      	movs	r2, #0
 8004ca4:	602a      	str	r2, [r5, #0]
 8004ca6:	461a      	mov	r2, r3
 8004ca8:	f7fe faa3 	bl	80031f2 <_read>
 8004cac:	1c43      	adds	r3, r0, #1
 8004cae:	d102      	bne.n	8004cb6 <_read_r+0x1e>
 8004cb0:	682b      	ldr	r3, [r5, #0]
 8004cb2:	b103      	cbz	r3, 8004cb6 <_read_r+0x1e>
 8004cb4:	6023      	str	r3, [r4, #0]
 8004cb6:	bd38      	pop	{r3, r4, r5, pc}
 8004cb8:	20000624 	.word	0x20000624

08004cbc <_raise_r>:
 8004cbc:	291f      	cmp	r1, #31
 8004cbe:	b538      	push	{r3, r4, r5, lr}
 8004cc0:	4604      	mov	r4, r0
 8004cc2:	460d      	mov	r5, r1
 8004cc4:	d904      	bls.n	8004cd0 <_raise_r+0x14>
 8004cc6:	2316      	movs	r3, #22
 8004cc8:	6003      	str	r3, [r0, #0]
 8004cca:	f04f 30ff 	mov.w	r0, #4294967295
 8004cce:	bd38      	pop	{r3, r4, r5, pc}
 8004cd0:	6c42      	ldr	r2, [r0, #68]	; 0x44
 8004cd2:	b112      	cbz	r2, 8004cda <_raise_r+0x1e>
 8004cd4:	f852 3021 	ldr.w	r3, [r2, r1, lsl #2]
 8004cd8:	b94b      	cbnz	r3, 8004cee <_raise_r+0x32>
 8004cda:	4620      	mov	r0, r4
 8004cdc:	f000 f830 	bl	8004d40 <_getpid_r>
 8004ce0:	462a      	mov	r2, r5
 8004ce2:	4601      	mov	r1, r0
 8004ce4:	4620      	mov	r0, r4
 8004ce6:	e8bd 4038 	ldmia.w	sp!, {r3, r4, r5, lr}
 8004cea:	f000 b817 	b.w	8004d1c <_kill_r>
 8004cee:	2b01      	cmp	r3, #1
 8004cf0:	d00a      	beq.n	8004d08 <_raise_r+0x4c>
 8004cf2:	1c59      	adds	r1, r3, #1
 8004cf4:	d103      	bne.n	8004cfe <_raise_r+0x42>
 8004cf6:	2316      	movs	r3, #22
 8004cf8:	6003      	str	r3, [r0, #0]
 8004cfa:	2001      	movs	r0, #1
 8004cfc:	e7e7      	b.n	8004cce <_raise_r+0x12>
 8004cfe:	2400      	movs	r4, #0
 8004d00:	f842 4025 	str.w	r4, [r2, r5, lsl #2]
 8004d04:	4628      	mov	r0, r5
 8004d06:	4798      	blx	r3
 8004d08:	2000      	movs	r0, #0
 8004d0a:	e7e0      	b.n	8004cce <_raise_r+0x12>

08004d0c <raise>:
 8004d0c:	4b02      	ldr	r3, [pc, #8]	; (8004d18 <raise+0xc>)
 8004d0e:	4601      	mov	r1, r0
 8004d10:	6818      	ldr	r0, [r3, #0]
 8004d12:	f7ff bfd3 	b.w	8004cbc <_raise_r>
 8004d16:	bf00      	nop
 8004d18:	2000005c 	.word	0x2000005c

08004d1c <_kill_r>:
 8004d1c:	b538      	push	{r3, r4, r5, lr}
 8004d1e:	4d07      	ldr	r5, [pc, #28]	; (8004d3c <_kill_r+0x20>)
 8004d20:	2300      	movs	r3, #0
 8004d22:	4604      	mov	r4, r0
 8004d24:	4608      	mov	r0, r1
 8004d26:	4611      	mov	r1, r2
 8004d28:	602b      	str	r3, [r5, #0]
 8004d2a:	f7fe fa48 	bl	80031be <_kill>
 8004d2e:	1c43      	adds	r3, r0, #1
 8004d30:	d102      	bne.n	8004d38 <_kill_r+0x1c>
 8004d32:	682b      	ldr	r3, [r5, #0]
 8004d34:	b103      	cbz	r3, 8004d38 <_kill_r+0x1c>
 8004d36:	6023      	str	r3, [r4, #0]
 8004d38:	bd38      	pop	{r3, r4, r5, pc}
 8004d3a:	bf00      	nop
 8004d3c:	20000624 	.word	0x20000624

08004d40 <_getpid_r>:
 8004d40:	f7fe ba35 	b.w	80031ae <_getpid>

08004d44 <_malloc_usable_size_r>:
 8004d44:	f851 3c04 	ldr.w	r3, [r1, #-4]
 8004d48:	1f18      	subs	r0, r3, #4
 8004d4a:	2b00      	cmp	r3, #0
 8004d4c:	bfbc      	itt	lt
 8004d4e:	580b      	ldrlt	r3, [r1, r0]
 8004d50:	18c0      	addlt	r0, r0, r3
 8004d52:	4770      	bx	lr

08004d54 <_init>:
 8004d54:	b5f8      	push	{r3, r4, r5, r6, r7, lr}
 8004d56:	bf00      	nop
 8004d58:	bcf8      	pop	{r3, r4, r5, r6, r7}
 8004d5a:	bc08      	pop	{r3}
 8004d5c:	469e      	mov	lr, r3
 8004d5e:	4770      	bx	lr

08004d60 <_fini>:
 8004d60:	b5f8      	push	{r3, r4, r5, r6, r7, lr}
 8004d62:	bf00      	nop
 8004d64:	bcf8      	pop	{r3, r4, r5, r6, r7}
 8004d66:	bc08      	pop	{r3}
 8004d68:	469e      	mov	lr, r3
 8004d6a:	4770      	bx	lr
